(dp0
S'pardon'
p1
(dp2
S'JusticeEvent.Pardon'
p3
(dp4
S'synset_percent'
p5
F0.0
sS'word'
p6
g1
sS'pos'
p7
S'v'
p8
sS'num_wordnet'
p9
I2
sS'event'
p10
g3
sS'fn'
p11
I1
sS'w2v_distance'
p12
cnumpy.core.multiarray
scalar
p13
(cnumpy
dtype
p14
(S'f8'
p15
I0
I1
tp16
Rp17
(I3
S'<'
p18
NNNI-1
I-1
I0
tp19
bS'\x00\x00\x00\x00\x00\x00\x00\x00'
p20
tp21
Rp22
sssS'headsman'
p23
(dp24
S'JusticeEvent.Execute'
p25
(dp26
g5
I0
sg6
g23
sg7
S'n'
p27
sg9
I0
sg10
g25
sg11
I1
sg12
g13
(g17
S'\x00\x00\x00R\xe45\xef?'
p28
tp29
Rp30
sssVexecuting
p31
(dp32
g25
(dp33
g5
I0
sg6
g31
sg7
Vn
p34
sg9
I1
sg10
g25
sg11
I0
sg12
g13
(g17
S'\x00\x00\x00\x00\x00\x00\x00\x00'
p35
tp36
Rp37
sssS'hanging'
p38
(dp39
g25
(dp40
g5
I0
sg6
g38
sg7
g27
sg9
I0
sg10
g25
sg11
I1
sg12
g13
(g17
S'\x00\x00\x00\x88"\xe7\xed?'
p41
tp42
Rp43
sssVgo
p44
(dp45
S'Movement.Transport.TransportPerson'
p46
(dp47
g5
I0
sg6
g44
sg7
Vv
p48
sg9
I1
sg10
g46
sg11
I0
sg12
g13
(g17
S'\x00\x00\x00@\xb1*\xe0?'
p49
tp50
Rp51
sssVbomber
p52
(dp53
S'Conflict.Attack'
p54
(dp55
g5
F1.0
sg6
g52
sg7
g34
sg9
I2
sg10
g54
sg11
I0
sg12
g13
(g17
S'\xac\xc2#\xaa\x1e\xee\xe2?'
p56
tp57
Rp58
sssVfounder
p59
(dp60
S'BusinessEvent.StartOrganization'
p61
(dp62
g5
F1.0
sg6
g59
sg7
g34
sg9
I2
sg10
g61
sg11
I0
sg12
g13
(g17
S'\x00\x00\x00\x00\x00\x00p>'
p63
tp64
Rp65
sssVeligible
p66
(dp67
S'PersonnelEvent.Elect'
p68
(dp69
g5
I0
sg6
g66
sg7
Va
p70
sg9
I1
sg10
g68
sg11
I0
sg12
g13
(g17
S'\x00\x00\x00\x10\x00\x00p\xbe'
p71
tp72
Rp73
sssS'father'
p74
(dp75
S'LifeEvent.BeBorn'
p76
(dp77
g5
I0
sg6
g74
sg7
g8
sg9
I0
sg10
g76
sg11
I1
sg12
g13
(g17
S'\x00\x00\x00\xe0\x01c\xe6?'
p78
tp79
Rp80
sssVegg_laying
p81
(dp82
g76
(dp83
g5
F1.0
sg6
g81
sg7
g34
sg9
I1
sg10
g76
sg11
I0
sg12
g13
(g17
S'\x00\x00\x00\xa0\x82\xd7\xe7?'
p84
tp85
Rp86
sssS'charge'
p87
(dp88
S'JusticeEvent.ChargeIndict'
p89
(dp90
g5
I0
sg6
g87
sg7
g8
sg9
I0
sg10
g89
sg11
I1
sg12
g13
(g17
S'\x00\x00\x00\x00!\xba\xe6?'
p91
tp92
Rp93
sssVswap
p94
(dp95
g46
(dp96
g5
I0
sg6
g94
sg7
g48
sg9
I1
sg10
g46
sg11
I0
sg12
g13
(g17
S'\x00\x00\x00@w^\xe6?'
p97
tp98
Rp99
sssS'intermix'
p100
(dp101
S'BusinessEvent.MergeOrg'
p102
(dp103
g5
I0
sg6
g100
sg7
g8
sg9
I0
sg10
g102
sg11
I1
sg12
g13
(g17
S'\x00\x00\x000s\xd0\xe7?'
p104
tp105
Rp106
sssVblitzkrieg
p107
(dp108
g54
(dp109
g5
I0
sg6
g107
sg7
g34
sg9
I1
sg10
g54
sg11
I0
sg12
g13
(g17
S"\x92\xb1_7'P\xe4?"
p110
tp111
Rp112
sssVshoot
p113
(dp114
S'LifeEvent.Injure'
p115
(dp116
g5
I0
sg6
g113
sg7
g34
sg9
I2
sg10
g115
sg11
I0
sg12
g13
(g17
S'\xb6\xe4\x98\xb6\xe4\x98\xe6?'
p117
tp118
Rp119
sssS'electrocute'
p120
(dp121
g115
(dp122
g5
I0
sg6
g120
sg7
g8
sg9
I0
sg10
g115
sg11
I1
sg12
g13
(g17
S'\x82\x13\xad\x82\x13\xad\xe2?'
p123
tp124
Rp125
sssS'torture'
p126
(dp127
g115
(dp128
g5
I0
sg6
g126
sg7
g8
sg9
I0
sg10
g115
sg11
I1
sg12
g13
(g17
S'\xcdXB\xcdXB\xed?'
p129
tp130
Rp131
sssVrise
p132
(dp133
g46
(dp134
g5
F0.26666666666666666
sg6
g132
sg7
g34
sg9
I2
sg10
g46
sg11
I0
sg12
g13
(g17
S'\x00\x00\x00@%\x87\xe6?'
p135
tp136
Rp137
sssVstabber
p138
(dp139
g115
(dp140
g5
I0
sg6
g138
sg7
g34
sg9
I1
sg10
g115
sg11
I0
sg12
g13
(g17
S'7\xb4\xfe6\xb4\xfe\xe6?'
p141
tp142
Rp143
sssVgestation
p144
(dp145
g76
(dp146
g5
I0
sg6
g144
sg7
g34
sg9
I2
sg10
g76
sg11
I0
sg12
g13
(g17
S'\x00\x00\x00@\x9e\x89\xe6?'
p147
tp148
Rp149
sssVsimulcast
p150
(dp151
S'Contact.Broadcast'
p152
(dp153
g5
I0
sg6
g150
sg7
g34
sg9
I1
sg10
g152
sg11
I0
sg12
g13
(g17
S'X\xd5\xe3S\x15\x0e\xd6?'
p154
tp155
Rp156
sssVhitting
p157
(dp158
g115
(dp159
g5
I0
sg6
g157
sg7
g34
sg9
I1
sg10
g115
sg11
I0
sg12
g13
(g17
S'W\x1e\xdaV\x1e\xda\xe6?'
p160
tp161
Rp162
sssS'smack'
p163
(dp164
g115
(dp165
g5
I0
sg6
g163
sg7
g8
sg9
I0
sg10
g115
sg11
I1
sg12
g13
(g17
S'\x02/\x8a\x01/\x8a\xe9?'
p166
tp167
Rp168
sssS'accuse'
p169
(dp170
g89
(dp171
g5
I0
sg6
g169
sg7
g8
sg9
I0
sg10
g89
sg11
I1
sg12
g13
(g17
S'\x00\x00\x00 \xdb\xd1\xe2?'
p172
tp173
Rp174
sssVfall
p175
(dp176
g46
(dp177
g5
F0.1724137931034483
sg6
g175
sg7
g34
sg9
I3
sg10
g46
sg11
I0
sg12
g13
(g17
S'\x00\x00\x00\x90\xe8\xda\xe6?'
p178
tp179
Rp180
sssS'amerce'
p181
(dp182
S'JusticeEvent.Fine'
p183
(dp184
g5
I0
sg6
g181
sg7
g8
sg9
I0
sg10
g183
sg11
I1
sg12
I1
sssS'ticket'
p185
(dp186
g183
(dp187
g5
I0
sg6
g185
sg7
g27
sg9
I0
sg10
g183
sg11
I1
sg12
g13
(g17
S'r\xb2\x89r\xb2\x89\xea?'
p188
tp189
Rp190
sssVexonerative
p191
(dp192
S'JusticeEvent.Acquit'
p193
(dp194
g5
I0
sg6
g191
sg7
Vs
p195
sg9
I1
sg10
g193
sg11
I0
sg12
g13
(g17
S'\x00\x00\x00@O\x1d\xde?'
p196
tp197
Rp198
sssVencounter
p199
(dp200
S'Contact.Meet'
p201
(dp202
g5
F0.21428571428571427
sg6
g199
sg7
g34
sg9
I1
sg10
g201
sg11
I0
sg12
g13
(g17
S'\x00\x00\x00\x00f\xbf\xe5?'
p203
tp204
Rp205
sssVdivorcement
p206
(dp207
S'LifeEvent.Divorce'
p208
(dp209
g5
I0
sg6
g206
sg7
g34
sg9
I1
sg10
g208
sg11
I0
sg12
g13
(g17
S'\x00\x00\x00\x00\x00\x00\x00\x00'
p210
tp211
Rp212
sssVprogression
p213
(dp214
g46
(dp215
g5
F0.25
sg6
g213
sg7
g34
sg9
I1
sg10
g46
sg11
I0
sg12
g13
(g17
S'\x00\x00\x00 \xda\x7f\xe6?'
p216
tp217
Rp218
sssS'die'
p219
(dp220
S'LifeEvent.Die'
p221
(dp222
g5
I0
sg6
g219
sg7
g8
sg9
I0
sg10
g221
sg11
I1
sg12
g13
(g17
S'\x00\x00\x00\x00\x00\x00\xf0<'
p223
tp224
Rp225
sssVmarry
p226
(dp227
S'LifeEvent.Marry'
p228
(dp229
g5
I0
sg6
g226
sg7
g48
sg9
I2
sg10
g228
sg11
I0
sg12
g13
(g17
S'\x00\x00\x00\x10\x00\x00p\xbe'
p230
tp231
Rp232
sssS'desertion'
p233
(dp234
S'PersonnelEvent.EndPosition'
p235
(dp236
g5
I0
sg6
g233
sg7
g27
sg9
I0
sg10
g235
sg11
I1
sg12
g13
(g17
S'\x00\x00\x00\xe0\xf5\xa8\xe9?'
p237
tp238
Rp239
sssS'independence'
p240
(dp241
g68
(dp242
g5
I0
sg6
g240
sg7
g27
sg9
I0
sg10
g68
sg11
I1
sg12
g13
(g17
S':\x01\xc79\x01\xc7\xe9?'
p243
tp244
Rp245
sssS'revolution'
p246
(dp247
g68
(dp248
g5
I0
sg6
g246
sg7
g27
sg9
I0
sg10
g68
sg11
I1
sg12
g13
(g17
S'\xddG6\xddG6\xed?'
p249
tp250
Rp251
sssVinvader
p252
(dp253
g54
(dp254
g5
F1.0
sg6
g252
sg7
g34
sg9
I1
sg10
g54
sg11
I0
sg12
g13
(g17
S'\x9b\xef\x8b2\x08\xba\xe6?'
p255
tp256
Rp257
sssS'set up'
p258
(dp259
g61
(dp260
g5
I0
sg6
g258
sg7
g8
sg9
I0
sg10
g61
sg11
I1
sg12
I1
sssVblitz
p261
(dp262
g54
(dp263
g5
I0
sg6
g261
sg7
g48
sg9
I4
sg10
g54
sg11
I0
sg12
g13
(g17
S'W\x9fsT0\xc6\xe5?'
p264
tp265
Rp266
sssVprocession
p267
(dp268
g46
(dp269
g5
I0
sg6
g267
sg7
g34
sg9
I1
sg10
g46
sg11
I0
sg12
g13
(g17
S'\x00\x00\x00\x908\x13\xe5?'
p270
tp271
Rp272
sssVjump
p273
(dp274
g46
(dp275
g5
I0
sg6
g273
sg7
g48
sg9
I1
sg10
g46
sg11
I0
sg12
g13
(g17
S'\x11$l\xf7\xedI\xe4?'
p276
tp277
Rp278
sssVbombardment
p279
(dp280
g54
(dp281
g5
I0
sg6
g279
sg7
g34
sg9
I2
sg10
g54
sg11
I0
sg12
g13
(g17
S'\x07\xcec\xfc\x18\xce\xe1?'
p282
tp283
Rp284
sssS'infiltration'
p285
(dp286
g54
(dp287
g5
I0
sg6
g285
sg7
g27
sg9
I0
sg10
g54
sg11
I1
sg12
g13
(g17
S'2\x99\xf4f\xb3\x85\xe8?'
p288
tp289
Rp290
sssS'guillotine'
p291
(dp292
g25
(dp293
g5
I0
sg6
g291
sg7
g8
sg9
I0
sg10
g25
sg11
I1
sg12
g13
(g17
S'\x00\x00\x00(<\x8c\xeb?'
p294
tp295
Rp296
sssS'fall_(upon)'
p297
(dp298
g54
(dp299
g5
I0
sg6
g297
sg7
g8
sg9
I0
sg10
g54
sg11
I1
sg12
I1
sssS'carry_to_term'
p300
(dp301
g76
(dp302
g5
I0
sg6
g300
sg7
g8
sg9
I0
sg10
g76
sg11
I1
sg12
I1
sssVsue
p303
(dp304
S'JusticeEvent.Sue'
p305
(dp306
g5
I0
sg6
g303
sg7
g48
sg9
I1
sg10
g305
sg11
I0
sg12
g13
(g17
S'\x00\x00\x00\x00\x00\x00\x00\x00'
p307
tp308
Rp309
sssS'poison'
p310
(dp311
g115
(dp312
g5
I0
sg6
g310
sg7
g8
sg9
I0
sg10
g115
sg11
I1
sg12
g13
(g17
S'7\x7f\x047\x7f\x04\xe7?'
p313
tp314
Rp315
sssS'crush'
p316
(dp317
g115
(dp318
g5
I0
sg6
g316
sg7
g8
sg9
I0
sg10
g115
sg11
I1
sg12
g13
(g17
S"(\xeaa'\xeaa\xe7?"
p319
tp320
Rp321
sssVreunite
p322
(dp323
g201
(dp324
g5
I0
sg6
g322
sg7
g48
sg9
I1
sg10
g201
sg11
I0
sg12
g13
(g17
S'\x00\x00\x00\xe0(\xa4\xe5?'
p325
tp326
Rp327
sssg193
(dp328
g5
I0
sg6
Vexculpate
p329
sg7
g48
sg9
I1
sg10
g193
sg11
I0
sg12
g13
(g17
S'\x00\x00\x00\x80\x17O\xe1?'
p330
tp331
Rp332
ssVintersect
p333
(dp334
g201
(dp335
g5
I0
sg6
g333
sg7
g48
sg9
I1
sg10
g201
sg11
I0
sg12
g13
(g17
S'\x00\x00\x00PG\xa1\xe7?'
p336
tp337
Rp338
sssVappeal
p339
(dp340
S'JusticeEvent.Appeal'
p341
(dp342
g5
F0.32
sg6
g339
sg7
g34
sg9
I1
sg10
g341
sg11
I0
sg12
g13
(g17
S'\x00\x00\x00\x00\x00\x00\x00\x00'
p343
tp344
Rp345
sssVsuccumb
p346
(dp347
g221
(dp348
g5
I0
sg6
g346
sg7
g48
sg9
I1
sg10
g221
sg11
I0
sg12
g13
(g17
S'\x90HI@\xa4$\xe0?'
p349
tp350
Rp351
sssS'meld'
p352
(dp353
g102
(dp354
g5
I0
sg6
g352
sg7
g8
sg9
I0
sg10
g102
sg11
I1
sg12
g13
(g17
S'\x00\x00\x00\x00@>\xdb?'
p355
tp356
Rp357
sssVmovement
p358
(dp359
g46
(dp360
g5
F0.4545454545454546
sg6
g358
sg7
g34
sg9
I2
sg10
g46
sg11
I0
sg12
g13
(g17
S'\x00\x00\x00\x00\x00\x00\x80\xbe'
p361
tp362
Rp363
sssS'exchange'
p364
(dp365
g201
(dp366
g5
I0
sg6
g364
sg7
g27
sg9
I0
sg10
g201
sg11
I1
sg12
g13
(g17
S'\x00\x00\x00\xf4S5\xee?'
p367
tp368
Rp369
sssS'join'
p370
(dp371
g102
(dp372
g5
I0
sg6
g370
sg7
g8
sg9
I0
sg10
g102
sg11
I1
sg12
g13
(g17
S'\x00\x00\x00P\xa5\x1d\xe4?'
p373
tp374
Rp375
sssVasphyxiation
p376
(dp377
g221
(dp378
g5
I0
sg6
g376
sg7
g34
sg9
I2
sg10
g221
sg11
I0
sg12
g13
(g17
S'vt\x84vt\x84\xe6?'
p379
tp380
Rp381
sssS'punch'
p382
(dp383
g115
(dp384
g5
I0
sg6
g382
sg7
g8
sg9
I0
sg10
g115
sg11
I1
sg12
g13
(g17
S'\t\x8d$\t\x8d$\xe9?'
p385
tp386
Rp387
sssVpursuit
p388
(dp389
g46
(dp390
g5
F0.6666666666666666
sg6
g388
sg7
g34
sg9
I1
sg10
g46
sg11
I0
sg12
g13
(g17
S"(\xdds'\xdds\xe7?"
p391
tp392
Rp393
sssS'pass away'
p394
(dp395
g221
(dp396
g5
I0
sg6
g394
sg7
g8
sg9
I0
sg10
g221
sg11
I1
sg12
I1
sssVconviction
p397
(dp398
S'JusticeEvent.Convict'
p399
(dp400
g5
F0.13636363636363635
sg6
g397
sg7
g34
sg9
I1
sg10
g399
sg11
I0
sg12
g13
(g17
S'\x00\x00\x00\x00\x00\x00p>'
p401
tp402
Rp403
sssg221
(dp404
g5
I0
sg6
Vgo
p405
sg7
g48
sg9
I1
sg10
g221
sg11
I0
sg12
g13
(g17
S'vx\tvx\t\xe6?'
p406
tp407
Rp408
ssVtelecast
p409
(dp410
g152
(dp411
g5
I0
sg6
g409
sg7
g48
sg9
I2
sg10
g152
sg11
I0
sg12
g13
(g17
S'\x00\x00\x00\x00=\xbe\xd1?'
p412
tp413
Rp414
sssVacquittal
p415
(dp416
g193
(dp417
g5
I0
sg6
g415
sg7
g34
sg9
I1
sg10
g193
sg11
I0
sg12
g13
(g17
S'\x00\x00\x00\x00\x00\x00\x80\xbe'
p418
tp419
Rp420
sssS'maker'
p421
(dp422
S'Manufacture.Artifact'
p423
(dp424
g5
I0
sg6
g421
sg7
g27
sg9
I0
sg10
g423
sg11
I1
sg12
g13
(g17
S'3i%3i%\xe3?'
p425
tp426
Rp427
sssS'elect'
p428
(dp429
g68
(dp430
g5
I0
sg6
g428
sg7
g8
sg9
I2
sg10
g68
sg11
I1
sg12
g13
(g17
S'\x00\x00\x00\x10\x00\x00p\xbe'
p431
tp432
Rp433
sssVretiree
p434
(dp435
g235
(dp436
g5
I0
sg6
g434
sg7
g34
sg9
I1
sg10
g235
sg11
I0
sg12
g13
(g17
S'\x00\x00\x00\x00P\xda\xd9?'
p437
tp438
Rp439
sssS'sire'
p440
(dp441
g76
(dp442
g5
I0
sg6
g440
sg7
g8
sg9
I0
sg10
g76
sg11
I1
sg12
g13
(g17
S'\x00\x00\x00\xd0\xfe9\xe9?'
p443
tp444
Rp445
sssS'bayonet'
p446
(dp447
g115
(dp448
g5
I0
sg6
g446
sg7
g8
sg9
I0
sg10
g115
sg11
I1
sg12
g13
(g17
S'\xac)o\xac)o\xec?'
p449
tp450
Rp451
sssS'clout'
p452
(dp453
g115
(dp454
g5
I0
sg6
g452
sg7
g8
sg9
I0
sg10
g115
sg11
I1
sg12
g13
(g17
S'\xe8\xe8.\xe8\xe8.\xee?'
p455
tp456
Rp457
sssS'summons'
p458
(dp459
S'JusticeEvent.ArrestJail'
p460
(dp461
g5
I0
sg6
g458
sg7
g8
sg9
I0
sg10
g460
sg11
I1
sg12
g13
(g17
S'\x00\x00\x00\xc0\xf9]\xe3?'
p462
tp463
Rp464
sssS'bludgeon'
p465
(dp466
g115
(dp467
g5
I0
sg6
g465
sg7
g8
sg9
I0
sg10
g115
sg11
I1
sg12
g13
(g17
S'\x18\x02b\x17\x02b\xe7?'
p468
tp469
Rp470
sssS'establish'
p471
(dp472
g61
(dp473
g5
I0
sg6
g471
sg7
g8
sg9
I0
sg10
g61
sg11
I1
sg12
g13
(g17
S'\x00\x00\x00h`]\xe8?'
p474
tp475
Rp476
sssVproceed
p477
(dp478
g46
(dp479
g5
I0
sg6
g477
sg7
g48
sg9
I1
sg10
g46
sg11
I0
sg12
g13
(g17
S'\x00\x00\x00\x908\x13\xe5?'
p480
tp481
Rp482
sssS'injure'
p483
(dp484
g115
(dp485
g5
I0
sg6
g483
sg7
g8
sg9
I2
sg10
g115
sg11
I1
sg12
g13
(g17
S'\x00\x00\x00\x00\x00\x00\xf0<'
p486
tp487
Rp488
sssVvisit
p489
(dp490
g201
(dp491
g5
F0.5
sg6
g489
sg7
g34
sg9
I1
sg10
g201
sg11
I0
sg12
g13
(g17
S'\x96\xb2\x11\xb5&w\xe5?'
p492
tp493
Rp494
sssS'coalesce'
p495
(dp496
g102
(dp497
g5
I0
sg6
g495
sg7
g8
sg9
I0
sg10
g102
sg11
I1
sg12
g13
(g17
S'\x00\x00\x00P\xef\xf7\xe3?'
p498
tp499
Rp500
sssS'strike'
p501
(dp502
g54
(dp503
g5
F0.2222222222222222
sg6
g501
sg7
g8
sg9
I2
sg10
g54
sg11
I1
sg12
g13
(g17
S'\x8a\x0f\xaa:\xf8\xaa\xe2?'
p504
tp505
Rp506
sssVinjury
p507
(dp508
g115
(dp509
g5
F1.0
sg6
g507
sg7
g34
sg9
I3
sg10
g115
sg11
I0
sg12
g13
(g17
S'\x00\x00\x00\x00\x00\x00\xf0<'
p510
tp511
Rp512
sssVfaller
p513
(dp514
g46
(dp515
g5
I0
sg6
g513
sg7
g34
sg9
I1
sg10
g46
sg11
I0
sg12
g13
(g17
S'\x00\x00\x00\x90\xe8\xda\xe6?'
p516
tp517
Rp518
sssS'club'
p519
(dp520
g115
(dp521
g5
I0
sg6
g519
sg7
g8
sg9
I0
sg10
g115
sg11
I1
sg12
g13
(g17
S'\xa45\xf9\xa35\xf9\xeb?'
p522
tp523
Rp524
sssS'hurt'
p525
(dp526
g115
(dp527
g5
F0.0
sg6
g525
sg7
g8
sg9
I1
sg10
g115
sg11
I1
sg12
g13
(g17
S'\xda\xd1\x11\xda\xd1\x11\xda?'
p528
tp529
Rp530
sssS'emigration'
p531
(dp532
g235
(dp533
g5
I0
sg6
g531
sg7
g27
sg9
I0
sg10
g235
sg11
I1
sg12
g13
(g17
S'\x00\x00\x00TY\x8c\xed?'
p534
tp535
Rp536
sssS'drown'
p537
(dp538
g221
(dp539
g5
I0
sg6
g537
sg7
g8
sg9
I1
sg10
g221
sg11
I1
sg12
g13
(g17
S'\xf2\xb0\xf8\xf1\xb0\xf8\xe1?'
p540
tp541
Rp542
sssVparolee
p543
(dp544
S'JusticeEvent.ReleaseParole'
p545
(dp546
g5
I0
sg6
g543
sg7
g34
sg9
I1
sg10
g545
sg11
I0
sg12
g13
(g17
S'\x00\x00\x00\x00\x00\x00\x00\x00'
p547
tp548
Rp549
sssVhurry
p550
(dp551
g46
(dp552
g5
F0.1111111111111111
sg6
g550
sg7
g34
sg9
I1
sg10
g46
sg11
I0
sg12
g13
(g17
S'\x00\x00\x00\xa0\xc9u\xe6?'
p553
tp554
Rp555
sssVfly
p556
(dp557
g46
(dp558
g5
F0.75
sg6
g556
sg7
g34
sg9
I1
sg10
g46
sg11
I0
sg12
g13
(g17
S'\x00\x00\x00\x00;]\xe7?'
p559
tp560
Rp561
sssS'thwack'
p562
(dp563
g115
(dp564
g5
I0
sg6
g562
sg7
g8
sg9
I0
sg10
g115
sg11
I1
sg12
g13
(g17
S'\xcb\x08<\xcb\x08<\xeb?'
p565
tp566
Rp567
sssVdivorcee
p568
(dp569
g208
(dp570
g5
I0
sg6
g568
sg7
g34
sg9
I1
sg10
g208
sg11
I0
sg12
g13
(g17
S'\x00\x00\x00\x00\x00\x00\x00\x00'
p571
tp572
Rp573
sssVpursue
p574
(dp575
g46
(dp576
g5
I0
sg6
g574
sg7
g48
sg9
I1
sg10
g46
sg11
I0
sg12
g13
(g17
S"(\xdds'\xdds\xe7?"
p577
tp578
Rp579
sssVremarriage
p580
(dp581
g228
(dp582
g5
I0
sg6
g580
sg7
g34
sg9
I1
sg10
g228
sg11
I0
sg12
g13
(g17
S'v\x90s$\xc89\xd2?'
p583
tp584
Rp585
sssS'install'
p586
(dp587
g68
(dp588
g5
I0
sg6
g586
sg7
g8
sg9
I0
sg10
g68
sg11
I1
sg12
g13
(g17
S'\x99l\xd1\x98l\xd1\xe8?'
p589
tp590
Rp591
sssS'elbow'
p592
(dp593
g115
(dp594
g5
I0
sg6
g592
sg7
g8
sg9
I0
sg10
g115
sg11
I1
sg12
g13
(g17
S'\xb7\x869\xb7\x869\xe7?'
p595
tp596
Rp597
sssVmeet
p598
(dp599
g201
(dp600
g5
F1.0
sg6
g598
sg7
g34
sg9
I1
sg10
g201
sg11
I0
sg12
g13
(g17
S'\x00\x00\x00\x00\x00\x00\x00\x00'
p601
tp602
Rp603
sssVclosing
p604
(dp605
S'BusinessEvent.EndOrganization'
p606
(dp607
g5
F0.0
sg6
g604
sg7
g34
sg9
I1
sg10
g606
sg11
I0
sg12
g13
(g17
S'\x00\x00\x00\xc0\xff\xff\x7f>'
p608
tp609
Rp610
sssVscramble
p611
(dp612
g46
(dp613
g5
F0.0
sg6
g611
sg7
g34
sg9
I1
sg10
g46
sg11
I0
sg12
g13
(g17
S'^\x1d\xcbPq\x9a\xe7?'
p614
tp615
Rp616
sssVpurchaser
p617
(dp618
S'Transaction.TransferOwnership'
p619
(dp620
g5
I0
sg6
g617
sg7
g34
sg9
I1
sg10
g619
sg11
I0
sg12
g13
(g17
S'\xa0\x8f5\x9e\x8f5\xce?'
p621
tp622
Rp623
sssVmeeter
p624
(dp625
g201
(dp626
g5
I0
sg6
g624
sg7
g34
sg9
I1
sg10
g201
sg11
I0
sg12
g13
(g17
S'\x00\x00\x00\x00\x00\x00\x00\x00'
p627
tp628
Rp629
sssS'onslaught'
p630
(dp631
g54
(dp632
g5
F0.5
sg6
g630
sg7
g27
sg9
I1
sg10
g54
sg11
I1
sg12
g13
(g17
S'"\xa1Po\xafW\xe0?'
p633
tp634
Rp635
sssS'escapee'
p636
(dp637
g235
(dp638
g5
I0
sg6
g636
sg7
g27
sg9
I0
sg10
g235
sg11
I1
sg12
g13
(g17
S'\x00\x00\x00\n[\xfd\xee?'
p639
tp640
Rp641
sssVabort
p642
(dp643
g221
(dp644
g5
I0
sg6
g642
sg7
g48
sg9
I1
sg10
g221
sg11
I0
sg12
g13
(g17
S'\xb7\r3\xb7\r3\xe7?'
p645
tp646
Rp647
sssS'jumble'
p648
(dp649
g102
(dp650
g5
I0
sg6
g648
sg7
g8
sg9
I0
sg10
g102
sg11
I1
sg12
g13
(g17
S'\x00\x00\x00\xf8\xf3\xc7\xe8?'
p651
tp652
Rp653
sssVascension
p654
(dp655
g46
(dp656
g5
I0
sg6
g654
sg7
g34
sg9
I2
sg10
g46
sg11
I0
sg12
g13
(g17
S'\x96w2\x96w2\xe6?'
p657
tp658
Rp659
sssS'hit'
p660
(dp661
g115
(dp662
g5
I0
sg6
g660
sg7
g8
sg9
I0
sg10
g115
sg11
I1
sg12
g13
(g17
S'W\x1e\xdaV\x1e\xda\xe6?'
p663
tp664
Rp665
sssS'calve'
p666
(dp667
g76
(dp668
g5
I0
sg6
g666
sg7
g8
sg9
I1
sg10
g76
sg11
I1
sg12
g13
(g17
S'|\xd7\xa0A\x94/\xe7?'
p669
tp670
Rp671
sssS'condemn'
p672
(dp673
S'JusticeEvent.Sentencing'
p674
(dp675
g5
I0
sg6
g672
sg7
g8
sg9
I0
sg10
g674
sg11
I1
sg12
g13
(g17
S'\x00\x00\x00\x88\xaa\x10\xeb?'
p676
tp677
Rp678
sssVbankrupt
p679
(dp680
S'BusinessEvent.DeclareBankruptcy'
p681
(dp682
g5
I0
sg6
g679
sg7
g195
sg9
I2
sg10
g681
sg11
I0
sg12
g13
(g17
S'\x00\x00\x00\x00\x00\x00\x00\x00'
p683
tp684
Rp685
sssVturn
p686
(dp687
g46
(dp688
g5
F0.0
sg6
g686
sg7
g34
sg9
I1
sg10
g46
sg11
I0
sg12
g13
(g17
S'\x00\x00\x00@\xf3\x17\xe1?'
p689
tp690
Rp691
sssVtravel
p692
(dp693
g46
(dp694
g5
F2.0
sg6
g692
sg7
g34
sg9
I5
sg10
g46
sg11
I0
sg12
g13
(g17
S'\x00\x00\x00\x80\xb8\xb0\xe7?'
p695
tp696
Rp697
sssg235
(dp698
g5
I0
sg6
Vretire
p699
sg7
g48
sg9
I1
sg10
g235
sg11
I0
sg12
g13
(g17
S'\x00\x00\x00\x00P\xda\xd9?'
p700
tp701
Rp702
ssVresignation
p703
(dp704
g235
(dp705
g5
F1.0
sg6
g703
sg7
g34
sg9
I3
sg10
g235
sg11
I0
sg12
g13
(g17
S'\x00\x00\x00\xc0\xa8G\xd4?'
p706
tp707
Rp708
sssS'gash'
p709
(dp710
g115
(dp711
g5
I0
sg6
g709
sg7
g8
sg9
I0
sg10
g115
sg11
I1
sg12
g13
(g17
S'\xf8q\xd4\xf7q\xd4\xe7?'
p712
tp713
Rp714
sssVexculpatory
p715
(dp716
g193
(dp717
g5
I0
sg6
g715
sg7
g70
sg9
I1
sg10
g193
sg11
I0
sg12
g13
(g17
S'\x00\x00\x00\x80\x17O\xe1?'
p718
tp719
Rp720
sssS'uprising'
p721
(dp722
g68
(dp723
g5
I0
sg6
g721
sg7
g27
sg9
I0
sg10
g68
sg11
I1
sg12
g13
(g17
S'@\xea(@\xea(\xec?'
p724
tp725
Rp726
sssVappealable
p727
(dp728
g341
(dp729
g5
I0
sg6
g727
sg7
g70
sg9
I1
sg10
g341
sg11
I0
sg12
g13
(g17
S'\x00\x00\x00\x00\x00\x00\x00\x00'
p730
tp731
Rp732
sssS'lump'
p733
(dp734
g102
(dp735
g5
I0
sg6
g733
sg7
g8
sg9
I0
sg10
g102
sg11
I1
sg12
g13
(g17
S'\x00\x00\x00\xe8 \xc5\xe9?'
p736
tp737
Rp738
sssVvaginal_birth
p739
(dp740
g76
(dp741
g5
I0
sg6
g739
sg7
g34
sg9
I1
sg10
g76
sg11
I0
sg12
g13
(g17
S'\x00\x00\x00`z\xdb\xe3?'
p742
tp743
Rp744
sssS'produce'
p745
(dp746
g423
(dp747
g5
I0
sg6
g745
sg7
g8
sg9
I0
sg10
g423
sg11
I1
sg12
g13
(g17
S'\x00\x00\x00pi\x1d\xe1?'
p748
tp749
Rp750
sssS'lay'
p751
(dp752
g76
(dp753
g5
I0
sg6
g751
sg7
g8
sg9
I0
sg10
g76
sg11
I1
sg12
g13
(g17
S'\x00\x00\x008aS\xed?'
p754
tp755
Rp756
sssVcoming
p757
(dp758
g46
(dp759
g5
F0.5
sg6
g757
sg7
g34
sg9
I1
sg10
g46
sg11
I0
sg12
g13
(g17
S'\x00\x00\x00\xe0\xe9\xeb\xe2?'
p760
tp761
Rp762
sssVinvasion
p763
(dp764
g54
(dp765
g5
F0.75
sg6
g763
sg7
g34
sg9
I1
sg10
g54
sg11
I0
sg12
g13
(g17
S'\x9b\xef\x8b2\x08\xba\xe6?'
p766
tp767
Rp768
sssVnomination
p769
(dp770
S'PersonnelEvent.Nominate'
p771
(dp772
g5
F2.0
sg6
g769
sg7
g34
sg9
I6
sg10
g771
sg11
I0
sg12
g13
(g17
S'\x00\x00\x00\x00\x00\x00\x00\x00'
p773
tp774
Rp775
sssVreelect
p776
(dp777
g68
(dp778
g5
I0
sg6
g776
sg7
g48
sg9
I1
sg10
g68
sg11
I0
sg12
g13
(g17
S'\xda\x7f*\xd9\x7f*\xd9?'
p779
tp780
Rp781
sssS'purchase'
p782
(dp783
g619
(dp784
g5
F0.9166666666666666
sg6
g782
sg7
g8
sg9
I2
sg10
g619
sg11
I1
sg12
g13
(g17
S'\xa0\x8f5\x9e\x8f5\xce?'
p785
tp786
Rp787
sssVsit
p788
(dp789
g46
(dp790
g5
I0
sg6
g788
sg7
g48
sg9
I1
sg10
g46
sg11
I0
sg12
g13
(g17
S'\x00\x00\x00\xa0.\xd1\xe5?'
p791
tp792
Rp793
sssS'revolt'
p794
(dp795
g68
(dp796
g5
I0
sg6
g794
sg7
g8
sg9
I0
sg10
g68
sg11
I1
sg12
g13
(g17
S'\x8at\x15\x8at\x15\xea?'
p797
tp798
Rp799
sssVcorrespond
p800
(dp801
S'Contact.Correspondence'
p802
(dp803
g5
I0
sg6
g800
sg7
g48
sg9
I1
sg10
g802
sg11
I0
sg12
g13
(g17
S'\x00\x00\x00\x10\x00\x00p\xbe'
p804
tp805
Rp806
sssVchildbearing
p807
(dp808
g76
(dp809
g5
I0
sg6
g807
sg7
g70
sg9
I2
sg10
g76
sg11
I0
sg12
g13
(g17
S'\x00\x00\x00\x10uK\xe4?'
p810
tp811
Rp812
sssVcrawling
p813
(dp814
g46
(dp815
g5
I0
sg6
g813
sg7
g34
sg9
I1
sg10
g46
sg11
I0
sg12
g13
(g17
S'\x00\x00\x00`\xa18\xe7?'
p816
tp817
Rp818
sssS'order'
p819
(dp820
g674
(dp821
g5
I0
sg6
g819
sg7
g8
sg9
I0
sg10
g674
sg11
I1
sg12
g13
(g17
S'\x00\x00\x00(\xda\x1f\xea?'
p822
tp823
Rp824
sssS'talk'
p825
(dp826
g201
(dp827
g5
I0
sg6
g825
sg7
g27
sg9
I0
sg10
g201
sg11
I1
sg12
g13
(g17
S'\x00\x00\x00\x00:\xab\xe5?'
p828
tp829
Rp830
sssVconverging
p831
(dp832
g201
(dp833
g5
I0
sg6
g831
sg7
g34
sg9
I1
sg10
g201
sg11
I0
sg12
g13
(g17
S'\x00\x00\x00\xa0\xf4\xfd\xe4?'
p834
tp835
Rp836
sssVhatching
p837
(dp838
g76
(dp839
g5
F1.0
sg6
g837
sg7
g34
sg9
I1
sg10
g76
sg11
I0
sg12
g13
(g17
S'\x00\x00\x00@\xbf\xcd\xe7?'
p840
tp841
Rp842
sssS'producer'
p843
(dp844
g423
(dp845
g5
I0
sg6
g843
sg7
g27
sg9
I0
sg10
g423
sg11
I1
sg12
g13
(g17
S'=\xedoa\tH\xeb?'
p846
tp847
Rp848
sssS'transfix'
p849
(dp850
g115
(dp851
g5
I0
sg6
g849
sg7
g8
sg9
I0
sg10
g115
sg11
I1
sg12
g13
(g17
S'\xaa\xc2\xb4Qa\xda\xe8?'
p852
tp853
Rp854
sssS'interlocutor'
p855
(dp856
g201
(dp857
g5
I0
sg6
g855
sg7
g27
sg9
I0
sg10
g201
sg11
I1
sg12
g13
(g17
S'\x00\x00\x00\xa8r\x92\xec?'
p858
tp859
Rp860
sssS'coronate'
p861
(dp862
g68
(dp863
g5
I0
sg6
g861
sg7
g8
sg9
I0
sg10
g68
sg11
I1
sg12
g13
(g17
S'3~\xd72~\xd7\xe2?'
p864
tp865
Rp866
sssVmove
p867
(dp868
g46
(dp869
g5
F0.3137254901960784
sg6
g867
sg7
g34
sg9
I1
sg10
g46
sg11
I0
sg12
g13
(g17
S'\x00\x00\x00\x00\x00\x00\x80\xbe'
p870
tp871
Rp872
sssS'bombing'
p873
(dp874
g54
(dp875
g5
F1.0
sg6
g873
sg7
g27
sg9
I1
sg10
g54
sg11
I1
sg12
g13
(g17
S'lZ\xf4\xc9\xd2\x05\xdb?'
p876
tp877
Rp878
sssVglide
p879
(dp880
g46
(dp881
g5
I0
sg6
g879
sg7
g34
sg9
I2
sg10
g46
sg11
I0
sg12
g13
(g17
S'\x18\x16\x87\x17\x16\x87\xe7?'
p882
tp883
Rp884
sssS'cudgel'
p885
(dp886
g115
(dp887
g5
I0
sg6
g885
sg7
g8
sg9
I0
sg10
g115
sg11
I1
sg12
g13
(g17
S'\xac\xda\x14Tm\n\xec?'
p888
tp889
Rp890
sssS'production'
p891
(dp892
g423
(dp893
g5
F0.0
sg6
g891
sg7
g27
sg9
I1
sg10
g423
sg11
I1
sg12
g13
(g17
S'\x00\x00\x00p\xcf\xf9\xe2?'
p894
tp895
Rp896
sssS'maim'
p897
(dp898
g115
(dp899
g5
I0
sg6
g897
sg7
g8
sg9
I1
sg10
g115
sg11
I1
sg12
g13
(g17
S'\\Gp[Gp\xdb?'
p900
tp901
Rp902
sssS'extradition'
p903
(dp904
S'JusticeEvent.Extradite'
p905
(dp906
g5
I0
sg6
g903
sg7
g27
sg9
I1
sg10
g905
sg11
I1
sg12
g13
(g17
S'\x98\xe9\x99\x97\xe9\x99\xc7?'
p907
tp908
Rp909
sssS'damages'
p910
(dp911
g183
(dp912
g5
I0
sg6
g910
sg7
g27
sg9
I0
sg10
g183
sg11
I1
sg12
g13
(g17
S'\xd7\x1e\xd7\xd6\x1e\xd7\xe6?'
p913
tp914
Rp915
sssVcorrespondence
p916
(dp917
g802
(dp918
g5
F0.7142857142857143
sg6
g916
sg7
g34
sg9
I1
sg10
g802
sg11
I0
sg12
g13
(g17
S'\x00\x00\x00\x10\x00\x00p\xbe'
p919
tp920
Rp921
sssVemployment
p922
(dp923
S'PersonnelEvent.StartPosition'
p924
(dp925
g5
F0.24
sg6
g922
sg7
g34
sg9
I1
sg10
g924
sg11
I0
sg12
g13
(g17
S'\xe4\x062\x8e\xfc\xe6\xd8?'
p926
tp927
Rp928
sssVreturn
p929
(dp930
g46
(dp931
g5
F0.47058823529411764
sg6
g929
sg7
g34
sg9
I2
sg10
g46
sg11
I0
sg12
g13
(g17
S"\x00\x00\x00\x00'\x87\xe4?"
p932
tp933
Rp934
sssVexculpation
p935
(dp936
g3
(dp937
g5
I0
sg6
g935
sg7
g34
sg9
I1
sg10
g3
sg11
I0
sg12
g13
(g17
S'\x00\x00\x00\xc0\x17\x81\xe5?'
p938
tp939
Rp940
sssS'smash'
p941
(dp942
g115
(dp943
g5
I0
sg6
g941
sg7
g8
sg9
I0
sg10
g115
sg11
I1
sg12
g13
(g17
S'vf\rvf\r\xe6?'
p944
tp945
Rp946
sssVpropose
p947
(dp948
g771
(dp949
g5
I0
sg6
g947
sg7
g48
sg9
I1
sg10
g771
sg11
I0
sg12
g13
(g17
S'\x14\xc1Y\x14\xc1Y\xe4?'
p950
tp951
Rp952
sssS'break'
p953
(dp954
g115
(dp955
g5
I0
sg6
g953
sg7
g8
sg9
I0
sg10
g115
sg11
I1
sg12
g13
(g17
S'\x88\xe7T\x88\xe7T\xe8?'
p956
tp957
Rp958
sssS'compound'
p959
(dp960
g102
(dp961
g5
I0
sg6
g959
sg7
g8
sg9
I0
sg10
g102
sg11
I1
sg12
g13
(g17
S'\x00\x00\x00\xda\xddD\xf0?'
p962
tp963
Rp964
sssS'discuss'
p965
(dp966
g201
(dp967
g5
I0
sg6
g965
sg7
g8
sg9
I0
sg10
g201
sg11
I1
sg12
g13
(g17
S'\x00\x00\x00`~\x16\xe0?'
p968
tp969
Rp970
sssS'execute'
p971
(dp972
g25
(dp973
g5
I0
sg6
g971
sg7
g8
sg9
I1
sg10
g25
sg11
I1
sg12
g13
(g17
S'\x00\x00\x00\x00\x00\x00\x00\x00'
p974
tp975
Rp976
sssS'establishment'
p977
(dp978
g61
(dp979
g5
I0
sg6
g977
sg7
g27
sg9
I0
sg10
g61
sg11
I1
sg12
g13
(g17
S':\xdc\xa69\xdc&\xf0?'
p980
tp981
Rp982
sssS'drop'
p983
(dp984
g76
(dp985
g5
I0
sg6
g983
sg7
g8
sg9
I0
sg10
g76
sg11
I1
sg12
g13
(g17
S'\x00\x00\x00\x84R\xb9\xec?'
p986
tp987
Rp988
sssS'merge'
p989
(dp990
g102
(dp991
g5
I0
sg6
g989
sg7
g8
sg9
I1
sg10
g102
sg11
I1
sg12
g13
(g17
S'\x00\x00\x00\x00\x00\x00\x00\x00'
p992
tp993
Rp994
sssS'found'
p995
(dp996
g61
(dp997
g5
I0
sg6
g995
sg7
g8
sg9
I0
sg10
g61
sg11
I1
sg12
g13
(g17
S'\x00\x00\x00\x00\x00\x00p>'
p998
tp999
Rp1000
sssVamnesty
p1001
(dp1002
g3
(dp1003
g5
I0
sg6
g1001
sg7
g48
sg9
I8
sg10
g3
sg11
I0
sg12
g13
(g17
S'\x00\x00\x00@\x01\xe4\xdd?'
p1004
tp1005
Rp1006
sssS'dethrone'
p1007
(dp1008
g68
(dp1009
g5
I0
sg6
g1007
sg7
g8
sg9
I0
sg10
g68
sg11
I1
sg12
g13
(g17
S'\xe0 k\xe0 k\xe8?'
p1010
tp1011
Rp1012
sssS'consolidate'
p1013
(dp1014
g102
(dp1015
g5
I0
sg6
g1013
sg7
g8
sg9
I1
sg10
g102
sg11
I1
sg12
g13
(g17
S'\x00\x00\x00@\xab\xc0\xdc?'
p1016
tp1017
Rp1018
sssVharm
p1019
(dp1020
g115
(dp1021
g5
F0.375
sg6
g1019
sg7
g34
sg9
I2
sg10
g115
sg11
I0
sg12
g13
(g17
S"\x8eN64'\x1b\xda?"
p1022
tp1023
Rp1024
sssS'generation'
p1025
(dp1026
g61
(dp1027
g5
I0
sg6
g1025
sg7
g27
sg9
I0
sg10
g61
sg11
I1
sg12
g13
(g17
S'\x00\x00\x00\xb1\x05&\xf0?'
p1028
tp1029
Rp1030
sssS'throw_together'
p1031
(dp1032
g102
(dp1033
g5
I0
sg6
g1031
sg7
g8
sg9
I0
sg10
g102
sg11
I1
sg12
I1
sssVwander
p1034
(dp1035
g46
(dp1036
g5
I0
sg6
g1034
sg7
g48
sg9
I2
sg10
g46
sg11
I0
sg12
g13
(g17
S'\x00\x00\x00\xb0\xf9\xb3\xe6?'
p1037
tp1038
Rp1039
sssS'whip'
p1040
(dp1041
g115
(dp1042
g5
I0
sg6
g1040
sg7
g8
sg9
I0
sg10
g115
sg11
I1
sg12
g13
(g17
S'\xb8Bt\xb8Bt\xe8?'
p1043
tp1044
Rp1045
sssVtrauma
p1046
(dp1047
g115
(dp1048
g5
I0
sg6
g1046
sg7
g34
sg9
I3
sg10
g115
sg11
I0
sg12
g13
(g17
S'\x92\x8aH\x92\x8aH\xe2?'
p1049
tp1050
Rp1051
sssVbirthing
p1052
(dp1053
g76
(dp1054
g5
I0
sg6
g1052
sg7
g34
sg9
I1
sg10
g76
sg11
I0
sg12
g13
(g17
S'\x00\x00\x00\xc0\xf8\xf4\xdf?'
p1055
tp1056
Rp1057
sssVinsolvent
p1058
(dp1059
g681
(dp1060
g5
I0
sg6
g1058
sg7
g34
sg9
I1
sg10
g681
sg11
I0
sg12
g13
(g17
S'\x00\x00\x00\x80\xac\x93\xd0?'
p1061
tp1062
Rp1063
sssVparturition
p1064
(dp1065
g76
(dp1066
g5
I0
sg6
g1064
sg7
g34
sg9
I1
sg10
g76
sg11
I0
sg12
g13
(g17
S'\x00\x00\x00\xe0\xe4\xc1\xe2?'
p1067
tp1068
Rp1069
sssVfoundation
p1070
(dp1071
g61
(dp1072
g5
F0.3
sg6
g1070
sg7
g34
sg9
I2
sg10
g61
sg11
I0
sg12
g13
(g17
S'\x00\x00\x00\x00\x00\x00p>'
p1073
tp1074
Rp1075
sssVascendant
p1076
(dp1077
g46
(dp1078
g5
I0
sg6
g1076
sg7
g195
sg9
I1
sg10
g46
sg11
I0
sg12
g13
(g17
S'\x96w2\x96w2\xe6?'
p1079
tp1080
Rp1081
sssS'perish'
p1082
(dp1083
g221
(dp1084
g5
I0
sg6
g1082
sg7
g8
sg9
I1
sg10
g221
sg11
I1
sg12
g13
(g17
S'\xd6\xbc\xae\xd6\xbc\xae\xd6?'
p1085
tp1086
Rp1087
sssVdrifting
p1088
(dp1089
g46
(dp1090
g5
I0
sg6
g1088
sg7
g34
sg9
I2
sg10
g46
sg11
I0
sg12
g13
(g17
S'\x00\x00\x00\x100\xae\xe3?'
p1091
tp1092
Rp1093
sssVfarrowing
p1094
(dp1095
g76
(dp1096
g5
I0
sg6
g1094
sg7
g34
sg9
I1
sg10
g76
sg11
I0
sg12
g13
(g17
S'\x00\x00\x00@\xb8c\xe6?'
p1097
tp1098
Rp1099
sssS'cut'
p1100
(dp1101
g115
(dp1102
g5
I0
sg6
g1100
sg7
g8
sg9
I0
sg10
g115
sg11
I1
sg12
g13
(g17
S'\xca\\\xf9\xc9\\\xf9\xe9?'
p1103
tp1104
Rp1105
sssVgraze
p1106
(dp1107
g115
(dp1108
g5
I0
sg6
g1106
sg7
g34
sg9
I3
sg10
g115
sg11
I0
sg12
g13
(g17
S'\xb6\xa0C\xb6\xa0C\xe6?'
p1109
tp1110
Rp1111
sssVflyer
p1112
(dp1113
g46
(dp1114
g5
F0.0
sg6
g1112
sg7
g34
sg9
I1
sg10
g46
sg11
I0
sg12
g13
(g17
S'\x00\x00\x00\x00;]\xe7?'
p1115
tp1116
Rp1117
sssVrepurchase
p1118
(dp1119
g619
(dp1120
g5
I0
sg6
g1118
sg7
g34
sg9
I2
sg10
g619
sg11
I0
sg12
g13
(g17
S'\x00\x00\x00\x80"\xde\xe4?'
p1121
tp1122
Rp1123
sssS'reparations'
p1124
(dp1125
g183
(dp1126
g5
I0
sg6
g1124
sg7
g27
sg9
I0
sg10
g183
sg11
I1
sg12
g13
(g17
S'{\xb5\xcdz\xb5\xcd\xea?'
p1127
tp1128
Rp1129
sssS'mutilate'
p1130
(dp1131
g115
(dp1132
g5
I0
sg6
g1130
sg7
g8
sg9
I0
sg10
g115
sg11
I1
sg12
g13
(g17
S'\xb2A}\xb2A}\xe2?'
p1133
tp1134
Rp1135
sssVpup
p1136
(dp1137
g76
(dp1138
g5
F1.0
sg6
g1136
sg7
g34
sg9
I1
sg10
g76
sg11
I0
sg12
g13
(g17
S'\x00\x00\x00\xc0Q=\xe7?'
p1139
tp1140
Rp1141
sssS'generate'
p1142
(dp1143
g76
(dp1144
g5
I0
sg6
g1142
sg7
g8
sg9
I0
sg10
g76
sg11
I1
sg12
g13
(g17
S'\x00\x00\x00,\xd4\x17\xf1?'
p1145
tp1146
Rp1147
sssS'bash'
p1148
(dp1149
g115
(dp1150
g5
I0
sg6
g1148
sg7
g8
sg9
I0
sg10
g115
sg11
I1
sg12
g13
(g17
S'\x0b.\xc7\n.\xc7\xea?'
p1151
tp1152
Rp1153
sssS'revolutionary'
p1154
(dp1155
g68
(dp1156
g5
I0
sg6
g1154
sg7
g27
sg9
I0
sg10
g68
sg11
I1
sg12
g13
(g17
S'\xf5i\xf8\xf4i\xf8\xec?'
p1157
tp1158
Rp1159
sssVadvance
p1160
(dp1161
g46
(dp1162
g5
F0.5333333333333333
sg6
g1160
sg7
g34
sg9
I2
sg10
g46
sg11
I0
sg12
g13
(g17
S'\x00\x00\x00p\x9b\xb5\xe7?'
p1163
tp1164
Rp1165
sssVmotion
p1166
(dp1167
g46
(dp1168
g5
F0.04
sg6
g1166
sg7
g34
sg9
I1
sg10
g46
sg11
I0
sg12
g13
(g17
S'\x00\x00\x00\x00\x00\x00\x80\xbe'
p1169
tp1170
Rp1171
sssVelector
p1172
(dp1173
g68
(dp1174
g5
F1.0
sg6
g1172
sg7
g34
sg9
I1
sg10
g68
sg11
I0
sg12
g13
(g17
S'\x00\x00\x00\x10\x00\x00p\xbe'
p1175
tp1176
Rp1177
sssVfarrow
p1178
(dp1179
g76
(dp1180
g5
I0
sg6
g1178
sg7
g48
sg9
I1
sg10
g76
sg11
I0
sg12
g13
(g17
S'\x00\x00\x00@\xb8c\xe6?'
p1181
tp1182
Rp1183
sssVelective
p1184
(dp1185
g68
(dp1186
g5
I0
sg6
g1184
sg7
g70
sg9
I1
sg10
g68
sg11
I0
sg12
g13
(g17
S'\x00\x00\x00\x10\x00\x00p\xbe'
p1187
tp1188
Rp1189
sssVswing
p1190
(dp1191
g46
(dp1192
g5
F0.25
sg6
g1190
sg7
g34
sg9
I1
sg10
g46
sg11
I0
sg12
g13
(g17
S'\xa0\xa5.0\xad\xe8\xe7?'
p1193
tp1194
Rp1195
sssS'industrial'
p1196
(dp1197
g423
(dp1198
g5
I0
sg6
g1196
sg7
S'a'
p1199
sg9
I0
sg10
g423
sg11
I1
sg12
g13
(g17
S'\x00\x00\x00\x00\xc3l\xe6?'
p1200
tp1201
Rp1202
sssVhearing
p1203
(dp1204
S'JusticeEvent.TrialHearing'
p1205
(dp1206
g5
F0.5263157894736842
sg6
g1203
sg7
g34
sg9
I2
sg10
g1205
sg11
I0
sg12
g13
(g17
S'\x00\x00\x00\x00\x00\x00\x80\xbe'
p1207
tp1208
Rp1209
sssVbombard
p1210
(dp1211
g54
(dp1212
g5
I0
sg6
g1210
sg7
g48
sg9
I2
sg10
g54
sg11
I0
sg12
g13
(g17
S'\x07\xcec\xfc\x18\xce\xe1?'
p1213
tp1214
Rp1215
sssVsubcontractor
p1216
(dp1217
g924
(dp1218
g5
I0
sg6
g1216
sg7
g34
sg9
I1
sg10
g924
sg11
I0
sg12
g13
(g17
S'\x18\xb2\xd1\xf3&\x17\xe6?'
p1219
tp1220
Rp1221
sssVcarry
p1222
(dp1223
g46
(dp1224
g5
F1.0
sg6
g1222
sg7
g34
sg9
I1
sg10
g46
sg11
I0
sg12
g13
(g17
S'\x00\x00\x00`\xaf\xb7\xe7?'
p1225
tp1226
Rp1227
sssVtraveler
p1228
(dp1229
g46
(dp1230
g5
F3.0
sg6
g1228
sg7
g34
sg9
I3
sg10
g46
sg11
I0
sg12
g13
(g17
S'\x00\x00\x00\x80\xb8\xb0\xe7?'
p1231
tp1232
Rp1233
sssVpasser
p1234
(dp1235
g46
(dp1236
g5
F1.0
sg6
g1234
sg7
g34
sg9
I1
sg10
g46
sg11
I0
sg12
g13
(g17
S'\x00\x00\x00\xa0\xef\x90\xe7?'
p1237
tp1238
Rp1239
sssVdivorce
p1240
(dp1241
g208
(dp1242
g5
F1.0
sg6
g1240
sg7
g34
sg9
I1
sg10
g208
sg11
I0
sg12
g13
(g17
S'\x00\x00\x00\x00\x00\x00\x00\x00'
p1243
tp1244
Rp1245
sssVtraumatize
p1246
(dp1247
g115
(dp1248
g5
I0
sg6
g1246
sg7
g48
sg9
I1
sg10
g115
sg11
I0
sg12
g13
(g17
S'\x92\x8aH\x92\x8aH\xe2?'
p1249
tp1250
Rp1251
sssS'swipe'
p1252
(dp1253
g115
(dp1254
g5
I0
sg6
g1252
sg7
g8
sg9
I0
sg10
g115
sg11
I1
sg12
g13
(g17
S'\x9cz\x0f\x9cz\x0f\xec?'
p1255
tp1256
Rp1257
sssVtraveller
p1258
(dp1259
g46
(dp1260
g5
F4.0
sg6
g1258
sg7
g34
sg9
I4
sg10
g46
sg11
I0
sg12
g13
(g17
S'\x00\x00\x00\x80\xb8\xb0\xe7?'
p1261
tp1262
Rp1263
sssVconstruct
p1264
(dp1265
g423
(dp1266
g5
I0
sg6
g1264
sg7
g48
sg9
I1
sg10
g423
sg11
I0
sg12
g13
(g17
S'\x00\x00\x00\xd0\x11[\xe5?'
p1267
tp1268
Rp1269
sssS'collar'
p1270
(dp1271
g460
(dp1272
g5
I0
sg6
g1270
sg7
g8
sg9
I0
sg10
g460
sg11
I1
sg12
g13
(g17
S'\x00\x00\x00lM\x0b\xed?'
p1273
tp1274
Rp1275
sssS'attack'
p1276
(dp1277
g54
(dp1278
g5
F0.68
sg6
g1276
sg7
g8
sg9
I2
sg10
g54
sg11
I1
sg12
g13
(g17
S'\x00\x00\x00\x00\x00\x00\x10='
p1279
tp1280
Rp1281
sssS'storm'
p1282
(dp1283
g54
(dp1284
g5
I0
sg6
g1282
sg7
g8
sg9
I0
sg10
g54
sg11
I1
sg12
g13
(g17
S'\xa7O\x88,\xd8\xbb\xe9?'
p1285
tp1286
Rp1287
sssS'cuff'
p1288
(dp1289
g115
(dp1290
g5
I0
sg6
g1288
sg7
g8
sg9
I0
sg10
g115
sg11
I1
sg12
g13
(g17
S'\xfd\xf2\xb2\xfc\xf2\xb2\xec?'
p1291
tp1292
Rp1293
sssS'boil'
p1294
(dp1295
g115
(dp1296
g5
I0
sg6
g1294
sg7
g8
sg9
I0
sg10
g115
sg11
I1
sg12
g13
(g17
S'68\x8258\x82\xed?'
p1297
tp1298
Rp1299
sssS'discussion'
p1300
(dp1301
g201
(dp1302
g5
I0
sg6
g1300
sg7
g27
sg9
I0
sg10
g201
sg11
I1
sg12
g13
(g17
S'\x00\x00\x00\xf0\xd9L\xeb?'
p1303
tp1304
Rp1305
sssVrepatriate
p1306
(dp1307
g905
(dp1308
g5
I0
sg6
g1306
sg7
g34
sg9
I2
sg10
g905
sg11
I0
sg12
g13
(g17
S'\xd2\xc6\xa6\xd1\xc6\xa6\xe1?'
p1309
tp1310
Rp1311
sssVslider
p1312
(dp1313
g46
(dp1314
g5
I0
sg6
g1312
sg7
g34
sg9
I1
sg10
g46
sg11
I0
sg12
g13
(g17
S'\x00\x00\x00\xb0\x9dh\xe6?'
p1315
tp1316
Rp1317
sssS'butt'
p1318
(dp1319
g115
(dp1320
g5
I0
sg6
g1318
sg7
g8
sg9
I0
sg10
g115
sg11
I1
sg12
g13
(g17
S'"\x99c"\x99c\xea?'
p1321
tp1322
Rp1323
sssVcrawl
p1324
(dp1325
g46
(dp1326
g5
F1.0
sg6
g1324
sg7
g34
sg9
I2
sg10
g46
sg11
I0
sg12
g13
(g17
S'\x00\x00\x00`\xa18\xe7?'
p1327
tp1328
Rp1329
sssS'infiltrate'
p1330
(dp1331
g54
(dp1332
g5
I0
sg6
g1330
sg7
g8
sg9
I0
sg10
g54
sg11
I1
sg12
g13
(g17
S'B\xbe\xe1\xde \x8f\xe8?'
p1333
tp1334
Rp1335
sssVsubscriber
p1336
(dp1337
g619
(dp1338
g5
I0
sg6
g1336
sg7
g34
sg9
I1
sg10
g619
sg11
I0
sg12
g13
(g17
S'\x00\x00\x000\xba\x8d\xe6?'
p1339
tp1340
Rp1341
sssS'crack'
p1342
(dp1343
g115
(dp1344
g5
I0
sg6
g1342
sg7
g8
sg9
I0
sg10
g115
sg11
I1
sg12
g13
(g17
S'{sB{sB\xeb?'
p1345
tp1346
Rp1347
sssS'dialogue'
p1348
(dp1349
g201
(dp1350
g5
I0
sg6
g1348
sg7
g27
sg9
I0
sg10
g201
sg11
I1
sg12
g13
(g17
S'\x00\x00\x00\x08\xac\xa5\xeb?'
p1351
tp1352
Rp1353
sssg115
(dp1354
g5
I0
sg6
S'strike'
p1355
sg7
g8
sg9
I0
sg10
g115
sg11
I1
sg12
g13
(g17
S'\nY5\nY5\xea?'
p1356
tp1357
Rp1358
ssVrebroadcast
p1359
(dp1360
g152
(dp1361
g5
I0
sg6
g1359
sg7
g34
sg9
I1
sg10
g152
sg11
I0
sg12
g13
(g17
S'\x14L\xd7\x13L\xd7\xd3?'
p1362
tp1363
Rp1364
sssVmarriage
p1365
(dp1366
g228
(dp1367
g5
F0.10526315789473684
sg6
g1365
sg7
g34
sg9
I2
sg10
g228
sg11
I0
sg12
g13
(g17
S'\x00\x00\x00\x10\x00\x00p\xbe'
p1368
tp1369
Rp1370
sssVtraumatise
p1371
(dp1372
g115
(dp1373
g5
I0
sg6
g1371
sg7
g48
sg9
I1
sg10
g115
sg11
I0
sg12
g13
(g17
S'\xb4#\xab\xb3#\xab\xe3?'
p1374
tp1375
Rp1376
sssS'impale'
p1377
(dp1378
g115
(dp1379
g5
I0
sg6
g1377
sg7
g8
sg9
I0
sg10
g115
sg11
I1
sg12
g13
(g17
S'\xb2\xd0\x1b\xb2\xd0\x1b\xe2?'
p1380
tp1381
Rp1382
sssS'poisoning'
p1383
(dp1384
g115
(dp1385
g5
I0
sg6
g1383
sg7
g27
sg9
I0
sg10
g115
sg11
I1
sg12
g13
(g17
S'Wk\x13Wk\x13\xe7?'
p1386
tp1387
Rp1388
sssS'send up'
p1389
(dp1390
g674
(dp1391
g5
I0
sg6
g1389
sg7
g8
sg9
I0
sg10
g674
sg11
I1
sg12
I1
sssVwandering
p1392
(dp1393
g46
(dp1394
g5
I0
sg6
g1392
sg7
g34
sg9
I1
sg10
g46
sg11
I0
sg12
g13
(g17
S'\x00\x00\x00\xb0\xf9\xb3\xe6?'
p1395
tp1396
Rp1397
sssS'executioner'
p1398
(dp1399
g25
(dp1400
g5
I0
sg6
g1398
sg7
g27
sg9
I0
sg10
g25
sg11
I1
sg12
g13
(g17
S'\xf9!N\xf9!N\xe9?'
p1401
tp1402
Rp1403
sssVprefabricate
p1404
(dp1405
g423
(dp1406
g5
I0
sg6
g1404
sg7
g48
sg9
I1
sg10
g423
sg11
I0
sg12
g13
(g17
S'\x00\x00\x00\xa0\xf4\xf2\xe5?'
p1407
tp1408
Rp1409
sssVreunion
p1410
(dp1411
g201
(dp1412
g5
F0.5
sg6
g1410
sg7
g34
sg9
I1
sg10
g201
sg11
I0
sg12
g13
(g17
S'\x00\x00\x00\xe0(\xa4\xe5?'
p1413
tp1414
Rp1415
sssS'defect'
p1416
(dp1417
g235
(dp1418
g5
I0
sg6
g1416
sg7
g8
sg9
I0
sg10
g235
sg11
I1
sg12
g13
(g17
S'\xb2S\xf8\xb1S\xf8\xe9?'
p1419
tp1420
Rp1421
sssS'slap'
p1422
(dp1423
g115
(dp1424
g5
I0
sg6
g1422
sg7
g8
sg9
I0
sg10
g115
sg11
I1
sg12
g13
(g17
S'Y\xbb\xb3X\xbb\xb3\xe8?'
p1425
tp1426
Rp1427
sssS'lay_(into)'
p1428
(dp1429
g54
(dp1430
g5
I0
sg6
g1428
sg7
g8
sg9
I0
sg10
g54
sg11
I1
sg12
I1
sssS'insurrection'
p1431
(dp1432
g68
(dp1433
g5
I0
sg6
g1431
sg7
g27
sg9
I0
sg10
g68
sg11
I1
sg12
g13
(g17
S'\xfa 4\xfa 4\xea?'
p1434
tp1435
Rp1436
sssS'have'
p1437
(dp1438
g76
(dp1439
g5
I0
sg6
g1437
sg7
g8
sg9
I0
sg10
g76
sg11
I1
sg12
g13
(g17
S'\x00\x00\x00s\xb9R\xef?'
p1440
tp1441
Rp1442
sssVsolemnisation
p1443
(dp1444
g228
(dp1445
g5
I0
sg6
g1443
sg7
g34
sg9
I1
sg10
g228
sg11
I0
sg12
g13
(g17
S'\x80zS\x80zS\xe0?'
p1446
tp1447
Rp1448
sssVdemonstration
p1449
(dp1450
S'Conflict.Demonstrate'
p1451
(dp1452
g5
F0.16666666666666666
sg6
g1449
sg7
g34
sg9
I1
sg10
g1451
sg11
I0
sg12
g13
(g17
S'\x00\x00\x00\x00\x00\x00\x00\x00'
p1453
tp1454
Rp1455
sssg54
(dp1456
g5
I0
sg6
S'charge'
p1457
sg7
g8
sg9
I0
sg10
g54
sg11
I1
sg12
g13
(g17
S'\xae2\xd1\xa8f\x97\xeb?'
p1458
tp1459
Rp1460
ssVfounding
p1461
(dp1462
g61
(dp1463
g5
F2.0
sg6
g1461
sg7
g34
sg9
I2
sg10
g61
sg11
I0
sg12
g13
(g17
S'\x00\x00\x00\x00\x00\x00p>'
p1464
tp1465
Rp1466
sssVwanderer
p1467
(dp1468
g46
(dp1469
g5
F1.0
sg6
g1467
sg7
g34
sg9
I1
sg10
g46
sg11
I0
sg12
g13
(g17
S'\x00\x00\x00\xb0\xf9\xb3\xe6?'
p1470
tp1471
Rp1472
sssS'beat up'
p1473
(dp1474
g115
(dp1475
g5
I0
sg6
g1473
sg7
g8
sg9
I0
sg10
g115
sg11
I1
sg12
I1
sssVpurchasing
p1476
(dp1477
g619
(dp1478
g5
I0
sg6
g1476
sg7
g34
sg9
I1
sg10
g619
sg11
I0
sg12
g13
(g17
S'\xa0\x8f5\x9e\x8f5\xce?'
p1479
tp1480
Rp1481
sssS'onset'
p1482
(dp1483
g54
(dp1484
g5
I0
sg6
g1482
sg7
g27
sg9
I0
sg10
g54
sg11
I1
sg12
g13
(g17
S'\x83\x1f\xa2>\xf0\xae\xec?'
p1485
tp1486
Rp1487
sssS'mix'
p1488
(dp1489
g102
(dp1490
g5
I0
sg6
g1488
sg7
g8
sg9
I0
sg10
g102
sg11
I1
sg12
g13
(g17
S'\x00\x00\x00\x00\xbd\xcb\xeb?'
p1491
tp1492
Rp1493
sssVtake
p1494
(dp1495
g619
(dp1496
g5
I0
sg6
g1494
sg7
g34
sg9
I3
sg10
g619
sg11
I0
sg12
g13
(g17
S'\x00\x00\x00\x80>\xd9\xe6?'
p1497
tp1498
Rp1499
sssS'fracture'
p1500
(dp1501
g115
(dp1502
g5
I0
sg6
g1500
sg7
g8
sg9
I3
sg10
g115
sg11
I1
sg12
g13
(g17
S'\xb6PR\xb5PR\xe5?'
p1503
tp1504
Rp1505
sssVhatch
p1506
(dp1507
g76
(dp1508
g5
I0
sg6
g1506
sg7
g48
sg9
I1
sg10
g76
sg11
I0
sg12
g13
(g17
S'\x00\x00\x00@\xbf\xcd\xe7?'
p1509
tp1510
Rp1511
sssVpursuer
p1512
(dp1513
g46
(dp1514
g5
F1.0
sg6
g1512
sg7
g34
sg9
I1
sg10
g46
sg11
I0
sg12
g13
(g17
S"(\xdds'\xdds\xe7?"
p1515
tp1516
Rp1517
sssVreelection
p1518
(dp1519
g68
(dp1520
g5
F1.0
sg6
g1518
sg7
g34
sg9
I1
sg10
g68
sg11
I0
sg12
g13
(g17
S'\xda\x7f*\xd9\x7f*\xd9?'
p1521
tp1522
Rp1523
sssVplay
p1524
(dp1525
g46
(dp1526
g5
F0.0
sg6
g1524
sg7
g34
sg9
I1
sg10
g46
sg11
I0
sg12
g13
(g17
S'\x00\x00\x00\x10\xc6\xbc\xe6?'
p1527
tp1528
Rp1529
sssS'biff'
p1530
(dp1531
g115
(dp1532
g5
I0
sg6
g1530
sg7
g8
sg9
I0
sg10
g115
sg11
I1
sg12
g13
(g17
S'l\xbd\x1dl\xbd\x1d\xec?'
p1533
tp1534
Rp1535
sssVhurtle
p1536
(dp1537
g46
(dp1538
g5
I0
sg6
g1536
sg7
g48
sg9
I1
sg10
g46
sg11
I0
sg12
g13
(g17
S'\x00\x00\x00p\x19\xe4\xe5?'
p1539
tp1540
Rp1541
sssVhirer
p1542
(dp1543
g924
(dp1544
g5
I0
sg6
g1542
sg7
g34
sg9
I1
sg10
g924
sg11
I0
sg12
g13
(g17
S'\x00\x00\x00\xc0\xff\xff\x7f>'
p1545
tp1546
Rp1547
sssS'buffet'
p1548
(dp1549
g115
(dp1550
g5
I0
sg6
g1548
sg7
g8
sg9
I0
sg10
g115
sg11
I1
sg12
g13
(g17
S'O\xea\x03O\xea\x03\xf0?'
p1551
tp1552
Rp1553
sssS'assault'
p1554
(dp1555
g54
(dp1556
g5
I0
sg6
g1554
sg7
g8
sg9
I0
sg10
g54
sg11
I1
sg12
g13
(g17
S'\xe8\xd0j\x8c\x97\xca\xd9?'
p1557
tp1558
Rp1559
sssS'propagate'
p1560
(dp1561
g76
(dp1562
g5
I0
sg6
g1560
sg7
g8
sg9
I0
sg10
g76
sg11
I1
sg12
g13
(g17
S'\xdc>\xc1\x91`\x1f\xed?'
p1563
tp1564
Rp1565
sssS'demise'
p1566
(dp1567
g221
(dp1568
g5
I0
sg6
g1566
sg7
g27
sg9
I0
sg10
g221
sg11
I1
sg12
g13
(g17
S'h\xa7\x10h\xa7\x10\xe8?'
p1569
tp1570
Rp1571
sssVintersectant
p1572
(dp1573
g201
(dp1574
g5
I0
sg6
g1572
sg7
g195
sg9
I1
sg10
g201
sg11
I0
sg12
g13
(g17
S'\x00\x00\x00PG\xa1\xe7?'
p1575
tp1576
Rp1577
sssVwive
p1578
(dp1579
g228
(dp1580
g5
I0
sg6
g1578
sg7
g48
sg9
I2
sg10
g228
sg11
I0
sg12
g13
(g17
S'\xde\xca\x14ie\x8a\xe4?'
p1581
tp1582
Rp1583
sssS'pair'
p1584
(dp1585
g102
(dp1586
g5
I0
sg6
g1584
sg7
g8
sg9
I0
sg10
g102
sg11
I1
sg12
g13
(g17
S'\x00\x00\x00\x00\x9e^\xee?'
p1587
tp1588
Rp1589
sssS'knee'
p1590
(dp1591
g115
(dp1592
g5
I0
sg6
g1590
sg7
g8
sg9
I0
sg10
g115
sg11
I1
sg12
g13
(g17
S'\xb8\xe8\x8f\xb7\xe8\x8f\xe7?'
p1593
tp1594
Rp1595
sssS'sally'
p1596
(dp1597
g235
(dp1598
g5
I0
sg6
g1596
sg7
g8
sg9
I0
sg10
g235
sg11
I1
sg12
g13
(g17
S'\xc7c\xaf\x1cN\xa8\xee?'
p1599
tp1600
Rp1601
sssVexonerate
p1602
(dp1603
g193
(dp1604
g5
I0
sg6
g1602
sg7
g48
sg9
I1
sg10
g193
sg11
I0
sg12
g13
(g17
S'\x00\x00\x00@O\x1d\xde?'
p1605
tp1606
Rp1607
sssS'calving'
p1608
(dp1609
g76
(dp1610
g5
F1.0
sg6
g1608
sg7
g27
sg9
I1
sg10
g76
sg11
I1
sg12
g13
(g17
S'\xf5\xe9*\xf5\xe9*\xe5?'
p1611
tp1612
Rp1613
sssVscrambler
p1614
(dp1615
g46
(dp1616
g5
I0
sg6
g1614
sg7
g34
sg9
I1
sg10
g46
sg11
I0
sg12
g13
(g17
S'^\x1d\xcbPq\x9a\xe7?'
p1617
tp1618
Rp1619
sssVshooter
p1620
(dp1621
g115
(dp1622
g5
F0.0
sg6
g1620
sg7
g34
sg9
I1
sg10
g115
sg11
I0
sg12
g13
(g17
S'\xb6\xe4\x98\xb6\xe4\x98\xe6?'
p1623
tp1624
Rp1625
sssVdrive
p1626
(dp1627
g46
(dp1628
g5
F0.5
sg6
g1626
sg7
g34
sg9
I6
sg10
g46
sg11
I0
sg12
g13
(g17
S'&\xb6\x9d%\xb6\x9d\xe5?'
p1629
tp1630
Rp1631
sssVrendezvous
p1632
(dp1633
g201
(dp1634
g5
F1.0
sg6
g1632
sg7
g34
sg9
I3
sg10
g201
sg11
I0
sg12
g13
(g17
S'\x00\x00\x00\xe0\x9ce\xe6?'
p1635
tp1636
Rp1637
sssS'flog'
p1638
(dp1639
g115
(dp1640
g5
I0
sg6
g1638
sg7
g8
sg9
I0
sg10
g115
sg11
I1
sg12
g13
(g17
S'K\x10\x0cK\x10\x0c\xeb?'
p1641
tp1642
Rp1643
sssVrehear
p1644
(dp1645
g1205
(dp1646
g5
I0
sg6
g1644
sg7
g48
sg9
I1
sg10
g1205
sg11
I0
sg12
g13
(g17
S'\x00\x00\x00\xa0\xaf\xc5\xe6?'
p1647
tp1648
Rp1649
sssVwalking
p1650
(dp1651
g46
(dp1652
g5
I0
sg6
g1650
sg7
g34
sg9
I1
sg10
g46
sg11
I0
sg12
g13
(g17
S'\x00\x00\x000R\xc3\xe5?'
p1653
tp1654
Rp1655
sssS'bomb'
p1656
(dp1657
g54
(dp1658
g5
F0.8888888888888888
sg6
g1656
sg7
g8
sg9
I1
sg10
g54
sg11
I1
sg12
g13
(g17
S'\xac\xc2#\xaa\x1e\xee\xe2?'
p1659
tp1660
Rp1661
sssVvisitor
p1662
(dp1663
g201
(dp1664
g5
F1.0
sg6
g1662
sg7
g34
sg9
I1
sg10
g201
sg11
I0
sg12
g13
(g17
S'\x96\xb2\x11\xb5&w\xe5?'
p1665
tp1666
Rp1667
sssVquo_warranto
p1668
(dp1669
g1205
(dp1670
g5
I0
sg6
g1668
sg7
g34
sg9
I1
sg10
g1205
sg11
I0
sg12
g13
(g17
S'\x00\x00\x00`\x08\xbc\xe6?'
p1671
tp1672
Rp1673
sssVretire
p1674
(dp1675
g46
(dp1676
g5
I0
sg6
g1674
sg7
g48
sg9
I1
sg10
g46
sg11
I0
sg12
g13
(g17
S'\x00\x00\x00\x00\xa7g\xe7?'
p1677
tp1678
Rp1679
sssVincapacitate
p1680
(dp1681
g115
(dp1682
g5
I0
sg6
g1680
sg7
g48
sg9
I1
sg10
g115
sg11
I0
sg12
g13
(g17
S'q\x91\xf0p\x91\xf0\xe0?'
p1683
tp1684
Rp1685
sssVconverge
p1686
(dp1687
g201
(dp1688
g5
I0
sg6
g1686
sg7
g48
sg9
I1
sg10
g201
sg11
I0
sg12
g13
(g17
S'\x00\x00\x00\xa0\xf4\xfd\xe4?'
p1689
tp1690
Rp1691
sssVpardoner
p1692
(dp1693
g3
(dp1694
g5
I0
sg6
g1692
sg7
g34
sg9
I2
sg10
g3
sg11
I0
sg12
g13
(g17
S'\x00\x00\x00\x00\x00\x00\x00\x00'
p1695
tp1696
Rp1697
sssVdemonstrator
p1698
(dp1699
g1451
(dp1700
g5
F0.0
sg6
g1698
sg7
g34
sg9
I1
sg10
g1451
sg11
I0
sg12
g13
(g17
S'\x00\x00\x00\x00\x00\x00\x00\x00'
p1701
tp1702
Rp1703
sssVcounterstrike
p1704
(dp1705
g54
(dp1706
g5
I0
sg6
g1704
sg7
g48
sg9
I1
sg10
g54
sg11
I0
sg12
g13
(g17
S'\x85\x9f\x91=07\xe1?'
p1707
tp1708
Rp1709
sssS'fine'
p1710
(dp1711
g183
(dp1712
g5
I0
sg6
g1710
sg7
g8
sg9
I4
sg10
g183
sg11
I1
sg12
g13
(g17
S'\x00\x00\x00\x00\x00\x00\xf0<'
p1713
tp1714
Rp1715
sssS'debate'
p1716
(dp1717
g201
(dp1718
g5
I0
sg6
g1716
sg7
g8
sg9
I0
sg10
g201
sg11
I1
sg12
g13
(g17
S'\x00\x00\x00\xdc\x02L\xed?'
p1719
tp1720
Rp1721
sssVlitigation
p1722
(dp1723
g305
(dp1724
g5
F1.0
sg6
g1722
sg7
g34
sg9
I1
sg10
g305
sg11
I0
sg12
g13
(g17
S'\x00\x00\x00\xc0\xcfR\xdf?'
p1725
tp1726
Rp1727
sssVacquit
p1728
(dp1729
g193
(dp1730
g5
I0
sg6
g1728
sg7
g48
sg9
I1
sg10
g193
sg11
I0
sg12
g13
(g17
S'\x00\x00\x00\x00\x00\x00\x80\xbe'
p1731
tp1732
Rp1733
sssVpredecease
p1734
(dp1735
g221
(dp1736
g5
I0
sg6
g1734
sg7
g48
sg9
I1
sg10
g221
sg11
I0
sg12
g13
(g17
S'w\xae\xd1v\xae\xd1\xe6?'
p1737
tp1738
Rp1739
sssVmerger
p1740
(dp1741
g102
(dp1742
g5
F1.0
sg6
g1740
sg7
g34
sg9
I2
sg10
g102
sg11
I0
sg12
g13
(g17
S'\x00\x00\x00\x00\x00\x00\x00\x00'
p1743
tp1744
Rp1745
sssVoutflank
p1746
(dp1747
g46
(dp1748
g5
I0
sg6
g1746
sg7
g48
sg9
I1
sg10
g46
sg11
I0
sg12
g13
(g17
S'\x00\x00\x00@?\x0f\xe7?'
p1749
tp1750
Rp1751
sssS'bust'
p1752
(dp1753
g460
(dp1754
g5
I0
sg6
g1752
sg7
g8
sg9
I0
sg10
g460
sg11
I1
sg12
g13
(g17
S'\x00\x00\x00\xb0\xb6\xcb\xe5?'
p1755
tp1756
Rp1757
sssVemployer
p1758
(dp1759
g924
(dp1760
g5
F1.0
sg6
g1758
sg7
g34
sg9
I1
sg10
g924
sg11
I0
sg12
g13
(g17
S'\xe4\x062\x8e\xfc\xe6\xd8?'
p1761
tp1762
Rp1763
sssVgoing
p1764
(dp1765
g221
(dp1766
g5
F0.0
sg6
g1764
sg7
g34
sg9
I1
sg10
g221
sg11
I0
sg12
g13
(g17
S'vx\tvx\t\xe6?'
p1767
tp1768
Rp1769
sssg61
(dp1770
g5
I0
sg6
S'make'
p1771
sg7
g8
sg9
I0
sg10
g61
sg11
I1
sg12
g13
(g17
S'\x00\x00\x00\x14\xbbC\xec?'
p1772
tp1773
Rp1774
ssVprefabrication
p1775
(dp1776
g423
(dp1777
g5
I0
sg6
g1775
sg7
g34
sg9
I1
sg10
g423
sg11
I0
sg12
g13
(g17
S'\x00\x00\x00\xa0\xf4\xf2\xe5?'
p1778
tp1779
Rp1780
sssVemployee
p1781
(dp1782
g924
(dp1783
g5
F1.0
sg6
g1781
sg7
g34
sg9
I1
sg10
g924
sg11
I0
sg12
g13
(g17
S'\xe4\x062\x8e\xfc\xe6\xd8?'
p1784
tp1785
Rp1786
sssS'jab'
p1787
(dp1788
g115
(dp1789
g5
I0
sg6
g1787
sg7
g8
sg9
I0
sg10
g115
sg11
I1
sg12
g13
(g17
S'\xac\x01\x91\xab\x01\x91\xeb?'
p1790
tp1791
Rp1792
sssS'mortality'
p1793
(dp1794
g221
(dp1795
g5
I0
sg6
g1793
sg7
g27
sg9
I0
sg10
g221
sg11
I1
sg12
g13
(g17
S'v\x00Yu\x00Y\xe5?'
p1796
tp1797
Rp1798
sssVconsolidative
p1799
(dp1800
g102
(dp1801
g5
I0
sg6
g1799
sg7
g195
sg9
I2
sg10
g102
sg11
I0
sg12
g13
(g17
S'\x00\x00\x00@\xab\xc0\xdc?'
p1802
tp1803
Rp1804
sssS'topple'
p1805
(dp1806
g68
(dp1807
g5
I0
sg6
g1805
sg7
g8
sg9
I0
sg10
g68
sg11
I1
sg12
g13
(g17
S'M6[\xa6\xc9\xa4\xe9?'
p1808
tp1809
Rp1810
sssVget
p1811
(dp1812
g619
(dp1813
g5
I0
sg6
g1811
sg7
g48
sg9
I1
sg10
g619
sg11
I0
sg12
g13
(g17
S'uL0uL0\xe5?'
p1814
tp1815
Rp1816
sssS'beat'
p1817
(dp1818
g115
(dp1819
g5
I0
sg6
g1817
sg7
g8
sg9
I0
sg10
g115
sg11
I1
sg12
g13
(g17
S'\x9e\x174\xcc\x0b\x1a\xea?'
p1820
tp1821
Rp1822
sssVremarry
p1823
(dp1824
g228
(dp1825
g5
I0
sg6
g1823
sg7
g48
sg9
I1
sg10
g228
sg11
I0
sg12
g13
(g17
S'v\x90s$\xc89\xd2?'
p1826
tp1827
Rp1828
sssVascender
p1829
(dp1830
g46
(dp1831
g5
I0
sg6
g1829
sg7
g34
sg9
I1
sg10
g46
sg11
I0
sg12
g13
(g17
S'\x96w2\x96w2\xe6?'
p1832
tp1833
Rp1834
sssVrush
p1835
(dp1836
g46
(dp1837
g5
F0.8
sg6
g1835
sg7
g34
sg9
I1
sg10
g46
sg11
I0
sg12
g13
(g17
S'\x00\x00\x00\xe0\xd9\xb5\xe6?'
p1838
tp1839
Rp1840
sssS'bear'
p1841
(dp1842
g76
(dp1843
g5
I0
sg6
g1841
sg7
g8
sg9
I0
sg10
g76
sg11
I1
sg12
g13
(g17
S'\x00\x00\x00p\xea\x82\xec?'
p1844
tp1845
Rp1846
sssS'batter'
p1847
(dp1848
g115
(dp1849
g5
I0
sg6
g1847
sg7
g8
sg9
I0
sg10
g115
sg11
I1
sg12
g13
(g17
S'zs!zs!\xea?'
p1850
tp1851
Rp1852
sssVsuer
p1853
(dp1854
g305
(dp1855
g5
I0
sg6
g1853
sg7
g34
sg9
I1
sg10
g305
sg11
I0
sg12
g13
(g17
S'\x00\x00\x00\x00\x00\x00\x00\x00'
p1856
tp1857
Rp1858
sssVwedding
p1859
(dp1860
g228
(dp1861
g5
F1.0
sg6
g1859
sg7
g34
sg9
I2
sg10
g228
sg11
I0
sg12
g13
(g17
S'\x9c\xc1\x96\x9a\xc1\x96\xca?'
p1862
tp1863
Rp1864
sssVbuyer
p1865
(dp1866
g619
(dp1867
g5
F1.0
sg6
g1865
sg7
g34
sg9
I1
sg10
g619
sg11
I0
sg12
g13
(g17
S'\x00\x00\x00\x00\x00\x00p>'
p1868
tp1869
Rp1870
sssVexoneration
p1871
(dp1872
g193
(dp1873
g5
I0
sg6
g1871
sg7
g34
sg9
I2
sg10
g193
sg11
I0
sg12
g13
(g17
S'\x00\x00\x00@O\x1d\xde?'
p1874
tp1875
Rp1876
sssVclosure
p1877
(dp1878
g606
(dp1879
g5
F0.0
sg6
g1877
sg7
g34
sg9
I1
sg10
g606
sg11
I0
sg12
g13
(g17
S'\x00\x00\x00\xc0\xff\xff\x7f>'
p1880
tp1881
Rp1882
sssVrebirth
p1883
(dp1884
g76
(dp1885
g5
I0
sg6
g1883
sg7
g34
sg9
I1
sg10
g76
sg11
I0
sg12
g13
(g17
S'\x00\x00\x00\x80\xdf \xe7?'
p1886
tp1887
Rp1888
sssVmarried
p1889
(dp1890
g228
(dp1891
g5
I0
sg6
g1889
sg7
g34
sg9
I1
sg10
g228
sg11
I0
sg12
g13
(g17
S'\x00\x00\x00\x10\x00\x00p\xbe'
p1892
tp1893
Rp1894
sssg76
(dp1895
g5
I0
sg6
S'get'
p1896
sg7
g8
sg9
I0
sg10
g76
sg11
I1
sg12
g13
(g17
S'\xd6e\xe4\xd5e\xe4\xef?'
p1897
tp1898
Rp1899
ssVwithdrawal
p1900
(dp1901
g46
(dp1902
g5
F0.3333333333333333
sg6
g1900
sg7
g34
sg9
I1
sg10
g46
sg11
I0
sg12
g13
(g17
S'\x00\x00\x00 \xbcm\xe6?'
p1903
tp1904
Rp1905
sssVdisablement
p1906
(dp1907
g115
(dp1908
g5
I0
sg6
g1906
sg7
g34
sg9
I1
sg10
g115
sg11
I0
sg12
g13
(g17
S'X\xefCW\xefC\xe7?'
p1909
tp1910
Rp1911
sssS'pummel'
p1912
(dp1913
g115
(dp1914
g5
I0
sg6
g1912
sg7
g8
sg9
I0
sg10
g115
sg11
I1
sg12
g13
(g17
S'\xb4Xn\xb4Xn\xe4?'
p1915
tp1916
Rp1917
sssVclose
p1918
(dp1919
g606
(dp1920
g5
F1.0
sg6
g1918
sg7
g34
sg9
I1
sg10
g606
sg11
I0
sg12
g13
(g17
S'\x00\x00\x00\xc0\xff\xff\x7f>'
p1921
tp1922
Rp1923
sssS'hammer'
p1924
(dp1925
g115
(dp1926
g5
I0
sg6
g1924
sg7
g8
sg9
I0
sg10
g115
sg11
I1
sg12
g13
(g17
S"\n\xa7'\n\xa7'\xea?"
p1927
tp1928
Rp1929
sssVcloser
p1930
(dp1931
g606
(dp1932
g5
I0
sg6
g1930
sg7
g34
sg9
I1
sg10
g606
sg11
I0
sg12
g13
(g17
S'\x00\x00\x00\xc0\xff\xff\x7f>'
p1933
tp1934
Rp1935
sssS'extradite'
p1936
(dp1937
g905
(dp1938
g5
I0
sg6
g1936
sg7
g8
sg9
I1
sg10
g905
sg11
I1
sg12
g13
(g17
S'\x00\x00\x00\x00\x00\x00\xf0<'
p1939
tp1940
Rp1941
sssS'flagellate'
p1942
(dp1943
g115
(dp1944
g5
I0
sg6
g1942
sg7
g8
sg9
I0
sg10
g115
sg11
I1
sg12
g13
(g17
S'\x98\xaa\xe5\x97\xaa\xe5\xe7?'
p1945
tp1946
Rp1947
sssVprogress
p1948
(dp1949
g46
(dp1950
g5
F0.3142857142857143
sg6
g1948
sg7
g34
sg9
I2
sg10
g46
sg11
I0
sg12
g13
(g17
S'\x00\x00\x00 \xda\x7f\xe6?'
p1951
tp1952
Rp1953
sssVtorpedo
p1954
(dp1955
g54
(dp1956
g5
I0
sg6
g1954
sg7
g34
sg9
I2
sg10
g54
sg11
I0
sg12
g13
(g17
S'\x1a>\xb8\xf2\xe0\xa3\xe6?'
p1957
tp1958
Rp1959
sssVsolemnization
p1960
(dp1961
g228
(dp1962
g5
I0
sg6
g1960
sg7
g34
sg9
I1
sg10
g228
sg11
I0
sg12
g13
(g17
S'\xde\xb9\xe8\xde\xb9\xe8\xde?'
p1963
tp1964
Rp1965
sssVhurrying
p1966
(dp1967
g46
(dp1968
g5
I0
sg6
g1966
sg7
g34
sg9
I1
sg10
g46
sg11
I0
sg12
g13
(g17
S'\x00\x00\x00\xa0\xc9u\xe6?'
p1969
tp1970
Rp1971
sssVjob
p1972
(dp1973
g924
(dp1974
g5
F0.3577235772357723
sg6
g1972
sg7
g34
sg9
I4
sg10
g924
sg11
I0
sg12
g13
(g17
S'\xd9\xb5\x11\rJ\xee\xe2?'
p1975
tp1976
Rp1977
sssS'death'
p1978
(dp1979
g221
(dp1980
g5
F0.8818897637795275
sg6
g1978
sg7
g27
sg9
I5
sg10
g221
sg11
I1
sg12
g13
(g17
S'P\xdf\xacP\xdf\xac\xe0?'
p1981
tp1982
Rp1983
sssVchildbirth
p1984
(dp1985
g76
(dp1986
g5
I0
sg6
g1984
sg7
g34
sg9
I1
sg10
g76
sg11
I0
sg12
g13
(g17
S'\x00\x00\x00\x80\xb5\xa1\xdd?'
p1987
tp1988
Rp1989
sssVcome
p1990
(dp1991
g46
(dp1992
g5
I0
sg6
g1990
sg7
g48
sg9
I2
sg10
g46
sg11
I0
sg12
g13
(g17
S'\x00\x00\x00\xe0\xe9\xeb\xe2?'
p1993
tp1994
Rp1995
sssVnominator
p1996
(dp1997
g771
(dp1998
g5
I0
sg6
g1996
sg7
g34
sg9
I3
sg10
g771
sg11
I0
sg12
g13
(g17
S'\x00\x00\x00\x00\x00\x00\x00\x00'
p1999
tp2000
Rp2001
sssS'emigrant'
p2002
(dp2003
g235
(dp2004
g5
I0
sg6
g2002
sg7
g27
sg9
I0
sg10
g235
sg11
I1
sg12
g13
(g17
S'\x00\x00\x00\x80\xde2\xef?'
p2005
tp2006
Rp2007
sssS'oust'
p2008
(dp2009
g68
(dp2010
g5
I0
sg6
g2008
sg7
g8
sg9
I0
sg10
g68
sg11
I1
sg12
g13
(g17
S'\xdc\xadn\xe8V7\xe4?'
p2011
tp2012
Rp2013
sssS'croak it'
p2014
(dp2015
g221
(dp2016
g5
I0
sg6
g2014
sg7
g8
sg9
I0
sg10
g221
sg11
I1
sg12
I1
sssVcontract
p2017
(dp2018
g924
(dp2019
g5
F0.9047619047619048
sg6
g2017
sg7
g34
sg9
I1
sg10
g924
sg11
I0
sg12
g13
(g17
S'4\x11\x1d\xb9\xee\xe2\xe6?'
p2020
tp2021
Rp2022
sssS'guillotining'
p2023
(dp2024
g25
(dp2025
g5
I0
sg6
g2023
sg7
g27
sg9
I0
sg10
g25
sg11
I1
sg12
g13
(g17
S'\x00\x00\x00\xda\xba)\xee?'
p2026
tp2027
Rp2028
sssS'lash'
p2029
(dp2030
g115
(dp2031
g5
I0
sg6
g2029
sg7
g8
sg9
I0
sg10
g115
sg11
I1
sg12
g13
(g17
S'\x17E\xe6\x16E\xe6\xe6?'
p2032
tp2033
Rp2034
sssVdeportee
p2035
(dp2036
g905
(dp2037
g5
F1.0
sg6
g2035
sg7
g34
sg9
I1
sg10
g905
sg11
I0
sg12
g13
(g17
S'V\xb4>V\xb4>\xd6?'
p2038
tp2039
Rp2040
sssS'negotiation'
p2041
(dp2042
g201
(dp2043
g5
I0
sg6
g2041
sg7
g27
sg9
I0
sg10
g201
sg11
I1
sg12
g13
(g17
S'\x00\x00\x00\x94\xeb\xd6\xec?'
p2044
tp2045
Rp2046
sssS'set_(upon)'
p2047
(dp2048
g54
(dp2049
g5
I0
sg6
g2047
sg7
g8
sg9
I0
sg10
g54
sg11
I1
sg12
I1
sssVflier
p2050
(dp2051
g46
(dp2052
g5
I0
sg6
g2050
sg7
g34
sg9
I1
sg10
g46
sg11
I0
sg12
g13
(g17
S'\x00\x00\x00\x00;]\xe7?'
p2053
tp2054
Rp2055
sssS'spear'
p2056
(dp2057
g115
(dp2058
g5
I0
sg6
g2056
sg7
g8
sg9
I0
sg10
g115
sg11
I1
sg12
g13
(g17
S'\xab\x97\xed\xaa\x97\xed\xea?'
p2059
tp2060
Rp2061
sssVinvasive
p2062
(dp2063
g54
(dp2064
g5
I0
sg6
g2062
sg7
g195
sg9
I1
sg10
g54
sg11
I0
sg12
g13
(g17
S'\x9b\xef\x8b2\x08\xba\xe6?'
p2065
tp2066
Rp2067
sssS'whelp'
p2068
(dp2069
g76
(dp2070
g5
I0
sg6
g2068
sg7
g8
sg9
I0
sg10
g76
sg11
I1
sg12
g13
(g17
S'X\x17PX\x17P\xe8?'
p2071
tp2072
Rp2073
sssVwalk
p2074
(dp2075
g46
(dp2076
g5
F1.25
sg6
g2074
sg7
g34
sg9
I8
sg10
g46
sg11
I0
sg12
g13
(g17
S'\x00\x00\x000R\xc3\xe5?'
p2077
tp2078
Rp2079
sssVsubscribe
p2080
(dp2081
g619
(dp2082
g5
I0
sg6
g2080
sg7
g48
sg9
I1
sg10
g619
sg11
I0
sg12
g13
(g17
S'\x00\x00\x000\xba\x8d\xe6?'
p2083
tp2084
Rp2085
sssVtwin
p2086
(dp2087
g76
(dp2088
g5
F1.0
sg6
g2086
sg7
g34
sg9
I1
sg10
g76
sg11
I0
sg12
g13
(g17
S'\x00\x00\x00Pvf\xe5?'
p2089
tp2090
Rp2091
sssS'indict'
p2092
(dp2093
g89
(dp2094
g5
I0
sg6
g2092
sg7
g8
sg9
I1
sg10
g89
sg11
I1
sg12
g13
(g17
S'\x00\x00\x00\x00\x00\x00\x00\x00'
p2095
tp2096
Rp2097
sssVgrazing
p2098
(dp2099
g115
(dp2100
g5
I0
sg6
g2098
sg7
g34
sg9
I1
sg10
g115
sg11
I0
sg12
g13
(g17
S'\xb6\xa0C\xb6\xa0C\xe6?'
p2101
tp2102
Rp2103
sssS'belt'
p2104
(dp2105
g115
(dp2106
g5
I0
sg6
g2104
sg7
g8
sg9
I0
sg10
g115
sg11
I1
sg12
g13
(g17
S'\xe6\xf7\x92\xf1{\xc9\xec?'
p2107
tp2108
Rp2109
sssS'conference'
p2110
(dp2111
g201
(dp2112
g5
I0
sg6
g2110
sg7
g27
sg9
I0
sg10
g201
sg11
I1
sg12
g13
(g17
S'\x00\x00\x00\x90)\xd8\xe6?'
p2113
tp2114
Rp2115
sssS'quit'
p2116
(dp2117
g235
(dp2118
g5
I0
sg6
g2116
sg7
g8
sg9
I1
sg10
g235
sg11
I1
sg12
g13
(g17
S'\x00\x00\x00\x00\x00\x00\x00\x00'
p2119
tp2120
Rp2121
sssVlifer
p2122
(dp2123
g674
(dp2124
g5
I0
sg6
g2122
sg7
g34
sg9
I1
sg10
g674
sg11
I0
sg12
g13
(g17
S'\x00\x00\x00\x00\xf1\x80\xe7?'
p2125
tp2126
Rp2127
sssS'parley'
p2128
(dp2129
g201
(dp2130
g5
I0
sg6
g2128
sg7
g27
sg9
I0
sg10
g201
sg11
I1
sg12
g13
(g17
S'\x00\x00\x00\x08\xf4\x9f\xe8?'
p2131
tp2132
Rp2133
sssS'create'
p2134
(dp2135
g61
(dp2136
g5
I0
sg6
g2134
sg7
g8
sg9
I0
sg10
g61
sg11
I1
sg12
g13
(g17
S'\x00\x00\x00\xf0\xc1\xd0\xeb?'
p2137
tp2138
Rp2139
sssVnewscast
p2140
(dp2141
g152
(dp2142
g5
I0
sg6
g2140
sg7
g34
sg9
I1
sg10
g152
sg11
I0
sg12
g13
(g17
S'\x00\x00\x00\xc0\xdb\xff\xde?'
p2143
tp2144
Rp2145
sssS'suffocate'
p2146
(dp2147
g221
(dp2148
g5
I0
sg6
g2146
sg7
g8
sg9
I1
sg10
g221
sg11
I1
sg12
g13
(g17
S'2k\x8a2k\x8a\xe2?'
p2149
tp2150
Rp2151
sssS'mutiny'
p2152
(dp2153
g68
(dp2154
g5
I0
sg6
g2152
sg7
g8
sg9
I0
sg10
g68
sg11
I1
sg12
g13
(g17
S'\x0e\x0c_\x05\x86\xaf\xec?'
p2155
tp2156
Rp2157
sssS'meeting'
p2158
(dp2159
g201
(dp2160
g5
F0.9743589743589745
sg6
g2158
sg7
g27
sg9
I4
sg10
g201
sg11
I1
sg12
g13
(g17
S'\x00\x00\x00\x80\x93\xf1\xde?'
p2161
tp2162
Rp2163
sssVcounterattack
p2164
(dp2165
g54
(dp2166
g5
F1.0
sg6
g2164
sg7
g34
sg9
I1
sg10
g54
sg11
I0
sg12
g13
(g17
S'z\xc4\xa0\xc2\x9d\xaf\xde?'
p2167
tp2168
Rp2169
sssg329
(dp2170
g3
(dp2171
g5
I0
sg6
g329
sg7
g48
sg9
I1
sg10
g3
sg11
I0
sg12
g13
(g17
S'\x00\x00\x00\xc0\x17\x81\xe5?'
p2172
tp2173
Rp2174
sssVlife
p2175
(dp2176
g674
(dp2177
g5
F0.0
sg6
g2175
sg7
g34
sg9
I1
sg10
g674
sg11
I0
sg12
g13
(g17
S'\x00\x00\x00\x00\xf1\x80\xe7?'
p2178
tp2179
Rp2180
sssS'lambing'
p2181
(dp2182
g76
(dp2183
g5
I0
sg6
g2181
sg7
g27
sg9
I0
sg10
g76
sg11
I1
sg12
g13
(g17
S'\x00\x00\x00 J\x19\xe7?'
p2184
tp2185
Rp2186
sssS'conflate'
p2187
(dp2188
g102
(dp2189
g5
I0
sg6
g2187
sg7
g8
sg9
I0
sg10
g102
sg11
I1
sg12
g13
(g17
S'\x00\x00\x00pfJ\xe7?'
p2190
tp2191
Rp2192
sssS'cop'
p2193
(dp2194
g460
(dp2195
g5
F1.0
sg6
g2193
sg7
g8
sg9
I1
sg10
g460
sg11
I1
sg12
g13
(g17
S'\x00\x00\x00\xf0\xe2\x91\xe7?'
p2196
tp2197
Rp2198
sssVintermarry
p2199
(dp2200
g228
(dp2201
g5
I0
sg6
g2199
sg7
g48
sg9
I1
sg10
g228
sg11
I0
sg12
g13
(g17
S'\x84\xc0\x9f\x84\xc0\x9f\xe4?'
p2202
tp2203
Rp2204
sssS'squash'
p2205
(dp2206
g115
(dp2207
g5
I0
sg6
g2205
sg7
g8
sg9
I0
sg10
g115
sg11
I1
sg12
g13
(g17
S'[\x94M[\x94M\xeb?'
p2208
tp2209
Rp2210
sssVconsolidation
p2211
(dp2212
g102
(dp2213
g5
F0.5
sg6
g2211
sg7
g34
sg9
I1
sg10
g102
sg11
I0
sg12
g13
(g17
S'\x00\x00\x00@\xab\xc0\xdc?'
p2214
tp2215
Rp2216
sssS'attacker'
p2217
(dp2218
g54
(dp2219
g5
F2.0
sg6
g2217
sg7
g27
sg9
I2
sg10
g54
sg11
I1
sg12
g13
(g17
S'\x0c\xfc\xc7\xf9\x01\x1c\xe3?'
p2220
tp2221
Rp2222
sssVlift
p2223
(dp2224
g46
(dp2225
g5
F0.0
sg6
g2223
sg7
g34
sg9
I1
sg10
g46
sg11
I0
sg12
g13
(g17
S'V\xf61V\xf61\xe6?'
p2226
tp2227
Rp2228
sssVdeport
p2229
(dp2230
g905
(dp2231
g5
I0
sg6
g2229
sg7
g48
sg9
I1
sg10
g905
sg11
I0
sg12
g13
(g17
S'V\xb4>V\xb4>\xd6?'
p2232
tp2233
Rp2234
sssVglider
p2235
(dp2236
g46
(dp2237
g5
I0
sg6
g2235
sg7
g34
sg9
I1
sg10
g46
sg11
I0
sg12
g13
(g17
S'\x18\x16\x87\x17\x16\x87\xe7?'
p2238
tp2239
Rp2240
sssS'unify'
p2241
(dp2242
g102
(dp2243
g5
I0
sg6
g2241
sg7
g8
sg9
I1
sg10
g102
sg11
I1
sg12
g13
(g17
S'\x00\x00\x00\x00Ti\xe1?'
p2244
tp2245
Rp2246
sssS'apprehension'
p2247
(dp2248
g460
(dp2249
g5
F0.0
sg6
g2247
sg7
g27
sg9
I2
sg10
g460
sg11
I1
sg12
g13
(g17
S'\x00\x00\x00\xb0Q\xc1\xe2?'
p2250
tp2251
Rp2252
sssVcannonade
p2253
(dp2254
g54
(dp2255
g5
I0
sg6
g2253
sg7
g34
sg9
I2
sg10
g54
sg11
I0
sg12
g13
(g17
S' cEpN\xdd\xe7?'
p2256
tp2257
Rp2258
sssVcondonation
p2259
(dp2260
g3
(dp2261
g5
I0
sg6
g2259
sg7
g34
sg9
I1
sg10
g3
sg11
I0
sg12
g13
(g17
S'\x00\x00\x000-f\xe5?'
p2262
tp2263
Rp2264
sssVnominate
p2265
(dp2266
g771
(dp2267
g5
I0
sg6
g2265
sg7
g48
sg9
I3
sg10
g771
sg11
I0
sg12
g13
(g17
S'\x00\x00\x00\x00\x00\x00\x00\x00'
p2268
tp2269
Rp2270
sssVemploy
p2271
(dp2272
g924
(dp2273
g5
F1.0
sg6
g2271
sg7
g34
sg9
I1
sg10
g924
sg11
I0
sg12
g13
(g17
S'\xe4\x062\x8e\xfc\xe6\xd8?'
p2274
tp2275
Rp2276
sssS'purchase_((act))'
p2277
(dp2278
g619
(dp2279
g5
I0
sg6
g2277
sg7
g27
sg9
I0
sg10
g619
sg11
I1
sg12
I1
sssS'maul'
p2280
(dp2281
g115
(dp2282
g5
I0
sg6
g2280
sg7
g8
sg9
I0
sg10
g115
sg11
I1
sg12
g13
(g17
S'\xa8\x08!\xa8\x08!\xe8?'
p2283
tp2284
Rp2285
sssS'spawn'
p2286
(dp2287
g76
(dp2288
g5
I0
sg6
g2286
sg7
g8
sg9
I0
sg10
g76
sg11
I1
sg12
g13
(g17
S'\x00\x00\x00\xe8W{\xea?'
p2289
tp2290
Rp2291
sssS'vest'
p2292
(dp2293
g68
(dp2294
g5
I0
sg6
g2292
sg7
g8
sg9
I0
sg10
g68
sg11
I1
sg12
g13
(g17
S'{c#{c#\xeb?'
p2295
tp2296
Rp2297
sssS'cane'
p2298
(dp2299
g115
(dp2300
g5
I0
sg6
g2298
sg7
g8
sg9
I0
sg10
g115
sg11
I1
sg12
g13
(g17
S'\xfc\xb0i\xfc\xb0i\xec?'
p2301
tp2302
Rp2303
sssS'apprehend'
p2304
(dp2305
g460
(dp2306
g5
I0
sg6
g2304
sg7
g8
sg9
I2
sg10
g460
sg11
I1
sg12
g13
(g17
S'^\xa0\x85^\xa0\x85\xde?'
p2307
tp2308
Rp2309
sssS'suffocation'
p2310
(dp2311
g221
(dp2312
g5
F1.0
sg6
g2310
sg7
g27
sg9
I1
sg10
g221
sg11
I1
sg12
g13
(g17
S'\x93P\xf8\x92P\xf8\xe2?'
p2313
tp2314
Rp2315
sssS'sting'
p2316
(dp2317
g115
(dp2318
g5
I0
sg6
g2316
sg7
g8
sg9
I0
sg10
g115
sg11
I1
sg12
g13
(g17
S'\xfb|8\xfb|8\xeb?'
p2319
tp2320
Rp2321
sssVsuffocative
p2322
(dp2323
g221
(dp2324
g5
I0
sg6
g2322
sg7
g195
sg9
I1
sg10
g221
sg11
I0
sg12
g13
(g17
S'2k\x8a2k\x8a\xe2?'
p2325
tp2326
Rp2327
sssS'terminator'
p2328
(dp2329
g221
(dp2330
g5
I0
sg6
g2328
sg7
g27
sg9
I0
sg10
g221
sg11
I1
sg12
g13
(g17
S'\xdc7\xfe\xdb7\xfe\xeb?'
p2331
tp2332
Rp2333
sssS'incursion'
p2334
(dp2335
g54
(dp2336
g5
F0.0
sg6
g2334
sg7
g27
sg9
I1
sg10
g54
sg11
I1
sg12
g13
(g17
S'Db\xc0\xdd\xce\x1f\xe1?'
p2337
tp2338
Rp2339
sssVseek
p2340
(dp2341
g46
(dp2342
g5
I0
sg6
g2340
sg7
g48
sg9
I1
sg10
g46
sg11
I0
sg12
g13
(g17
S'F<HF<H\xe6?'
p2343
tp2344
Rp2345
sssS'make'
p2346
(dp2347
g423
(dp2348
g5
I0
sg6
g2346
sg7
g8
sg9
I0
sg10
g423
sg11
I1
sg12
g13
(g17
S'\x00\x00\x00\xb0E\xcc\xe8?'
p2349
tp2350
Rp2351
sssVsubcontract
p2352
(dp2353
g924
(dp2354
g5
I0
sg6
g2352
sg7
g34
sg9
I2
sg10
g924
sg11
I0
sg12
g13
(g17
S'\x18\xb2\xd1\xf3&\x17\xe6?'
p2355
tp2356
Rp2357
sssS'wound'
p2358
(dp2359
g115
(dp2360
g5
I0
sg6
g2358
sg7
g8
sg9
I0
sg10
g115
sg11
I1
sg12
g13
(g17
S'M@\x8b#\xa0\xc5\xe9?'
p2361
tp2362
Rp2363
sssS'unite'
p2364
(dp2365
g102
(dp2366
g5
I0
sg6
g2364
sg7
g8
sg9
I1
sg10
g102
sg11
I1
sg12
g13
(g17
S'\x00\x00\x00`E\x81\xe2?'
p2367
tp2368
Rp2369
sssS'rebellion'
p2370
(dp2371
g68
(dp2372
g5
I0
sg6
g2370
sg7
g27
sg9
I0
sg10
g68
sg11
I1
sg12
g13
(g17
S'\x975\xee\xc9\x1a\xf7\xec?'
p2373
tp2374
Rp2375
sssVbe_born
p2376
(dp2377
g76
(dp2378
g5
I0
sg6
g2376
sg7
g48
sg9
I3
sg10
g76
sg11
I0
sg12
g13
(g17
S'\x00\x00\x00\x00\x00\x00\x80\xbe'
p2379
tp2380
Rp2381
sssS'split'
p2382
(dp2383
g235
(dp2384
g5
I0
sg6
g2382
sg7
g8
sg9
I0
sg10
g235
sg11
I1
sg12
g13
(g17
S'\x00\x00\x00P\xaf\x95\xe9?'
p2385
tp2386
Rp2387
sssS'indictment'
p2388
(dp2389
g89
(dp2390
g5
F1.0
sg6
g2388
sg7
g27
sg9
I2
sg10
g89
sg11
I1
sg12
g13
(g17
S'\x00\x00\x00\x80m\xcf\xe1?'
p2391
tp2392
Rp2393
sssVforgiveness
p2394
(dp2395
g3
(dp2396
g5
I0
sg6
g2394
sg7
g34
sg9
I1
sg10
g3
sg11
I0
sg12
g13
(g17
S'\x00\x00\x00\x80Pt\xe1?'
p2397
tp2398
Rp2399
sssVdecedent
p2400
(dp2401
g221
(dp2402
g5
F1.0
sg6
g2400
sg7
g34
sg9
I1
sg10
g221
sg11
I0
sg12
g13
(g17
S'%\xa9\xfd\x8d\xd4\xfe\xe6?'
p2403
tp2404
Rp2405
sssS'raid'
p2406
(dp2407
g54
(dp2408
g5
F1.0
sg6
g2406
sg7
g27
sg9
I1
sg10
g54
sg11
I1
sg12
g13
(g17
S'\xe0b0\xe0\x9c\xcf\xdf?'
p2409
tp2410
Rp2411
sssVascensive
p2412
(dp2413
g46
(dp2414
g5
I0
sg6
g2412
sg7
g195
sg9
I1
sg10
g46
sg11
I0
sg12
g13
(g17
S'\x96w2\x96w2\xe6?'
p2415
tp2416
Rp2417
sssVfoal
p2418
(dp2419
g76
(dp2420
g5
I0
sg6
g2418
sg7
g34
sg9
I2
sg10
g76
sg11
I0
sg12
g13
(g17
S'\xf6\xd9G\xf5\xd9G\xe5?'
p2421
tp2422
Rp2423
sssS'hang'
p2424
(dp2425
g25
(dp2426
g5
I0
sg6
g2424
sg7
g8
sg9
I0
sg10
g25
sg11
I1
sg12
g13
(g17
S'\x00\x00\x00 G\x03\xe9?'
p2427
tp2428
Rp2429
sssS'negotiate'
p2430
(dp2431
g201
(dp2432
g5
I0
sg6
g2430
sg7
g8
sg9
I0
sg10
g201
sg11
I1
sg12
g13
(g17
S'\x00\x00\x00@\xbb\xe9\xe4?'
p2433
tp2434
Rp2435
sssS'hangman'
p2436
(dp2437
g25
(dp2438
g5
I0
sg6
g2436
sg7
g27
sg9
I0
sg10
g25
sg11
I1
sg12
g13
(g17
S'\x00\x00\x00\x80\xbcz\xe9?'
p2439
tp2440
Rp2441
sssVbruiser
p2442
(dp2443
g115
(dp2444
g5
I0
sg6
g2442
sg7
g34
sg9
I1
sg10
g115
sg11
I0
sg12
g13
(g17
S'\x16\x81\xba\x16\x81\xba\xe6?'
p2445
tp2446
Rp2447
sssS'fabrication'
p2448
(dp2449
g423
(dp2450
g5
I0
sg6
g2448
sg7
g27
sg9
I4
sg10
g423
sg11
I1
sg12
g13
(g17
S'\x00\x00\x00\x80\xfbx\xe1?'
p2451
tp2452
Rp2453
sssS'kid'
p2454
(dp2455
g76
(dp2456
g5
I0
sg6
g2454
sg7
g8
sg9
I0
sg10
g76
sg11
I1
sg12
g13
(g17
S'\x00\x00\x00(Kt\xec?'
p2457
tp2458
Rp2459
sssVcorrespondent
p2460
(dp2461
g802
(dp2462
g5
F0.6
sg6
g2460
sg7
g34
sg9
I1
sg10
g802
sg11
I0
sg12
g13
(g17
S'\x00\x00\x00\x10\x00\x00p\xbe'
p2463
tp2464
Rp2465
sssVvacant
p2466
(dp2467
g235
(dp2468
g5
I0
sg6
g2466
sg7
g195
sg9
I1
sg10
g235
sg11
I0
sg12
g13
(g17
S'.\xdb?i\x12`\xe3?'
p2469
tp2470
Rp2471
sssS'welt'
p2472
(dp2473
g115
(dp2474
g5
I0
sg6
g2472
sg7
g8
sg9
I0
sg10
g115
sg11
I1
sg12
g13
(g17
S'\xab\xdf\xbe\xaa\xdf\xbe\xea?'
p2475
tp2476
Rp2477
sssS'admix'
p2478
(dp2479
g102
(dp2480
g5
I0
sg6
g2478
sg7
g8
sg9
I0
sg10
g102
sg11
I1
sg12
g13
(g17
S'\x00\x00\x00L\xc4\x85\xed?'
p2481
tp2482
Rp2483
sssVwithdraw
p2484
(dp2485
g46
(dp2486
g5
I0
sg6
g2484
sg7
g48
sg9
I1
sg10
g46
sg11
I0
sg12
g13
(g17
S'\x00\x00\x00 \xbcm\xe6?'
p2487
tp2488
Rp2489
sssS'mother'
p2490
(dp2491
g76
(dp2492
g5
I0
sg6
g2490
sg7
g8
sg9
I0
sg10
g76
sg11
I1
sg12
g13
(g17
S'\x00\x00\x00\xc0\xb7y\xe4?'
p2493
tp2494
Rp2495
sssS'coup'
p2496
(dp2497
g68
(dp2498
g5
I0
sg6
g2496
sg7
g27
sg9
I0
sg10
g68
sg11
I1
sg12
g13
(g17
S'\xd2\x8f\xfd\xe6\xc7~\xeb?'
p2499
tp2500
Rp2501
sssS'sentence'
p2502
(dp2503
g674
(dp2504
g5
F0.20512820512820512
sg6
g2502
sg7
g8
sg9
I2
sg10
g674
sg11
I1
sg12
g13
(g17
S'\x00\x00\x00\x00\x00\x00p>'
p2505
tp2506
Rp2507
sssS'electrocution'
p2508
(dp2509
g115
(dp2510
g5
I0
sg6
g2508
sg7
g27
sg9
I0
sg10
g115
sg11
I1
sg12
g13
(g17
S'\xc5w\xf9(\x88\x06\xe7?'
p2511
tp2512
Rp2513
sssS'bruise'
p2514
(dp2515
g115
(dp2516
g5
F1.0
sg6
g2514
sg7
g8
sg9
I1
sg10
g115
sg11
I1
sg12
g13
(g17
S'\x16\x81\xba\x16\x81\xba\xe6?'
p2517
tp2518
Rp2519
sssS'amalgamate'
p2520
(dp2521
g102
(dp2522
g5
I0
sg6
g2520
sg7
g8
sg9
I0
sg10
g102
sg11
I1
sg12
g13
(g17
S'\x00\x00\x00\x00iR\xcf?'
p2523
tp2524
Rp2525
sssVDeath
p2526
(dp2527
g221
(dp2528
g5
F1.0
sg6
g2526
sg7
g34
sg9
I1
sg10
g221
sg11
I0
sg12
g13
(g17
S'\x00\x00\x00\x00\x00\x00\xf0<'
p2529
tp2530
Rp2531
sssS'discussant'
p2532
(dp2533
g201
(dp2534
g5
I0
sg6
g2532
sg7
g27
sg9
I0
sg10
g201
sg11
I1
sg12
g13
(g17
S'\x00\x00\x00\xbc\x9f\xa6\xef?'
p2535
tp2536
Rp2537
sssVrushing
p2538
(dp2539
g46
(dp2540
g5
F0.16666666666666666
sg6
g2538
sg7
g34
sg9
I1
sg10
g46
sg11
I0
sg12
g13
(g17
S'\x00\x00\x00\xe0\xd9\xb5\xe6?'
p2541
tp2542
Rp2543
sssS'take over'
p2544
(dp2545
g68
(dp2546
g5
I0
sg6
g2544
sg7
g8
sg9
I0
sg10
g68
sg11
I1
sg12
I1
sssVretirement
p2547
(dp2548
g235
(dp2549
g5
F1.0
sg6
g2547
sg7
g34
sg9
I2
sg10
g235
sg11
I0
sg12
g13
(g17
S'\x00\x00\x00\x00P\xda\xd9?'
p2550
tp2551
Rp2552
sssVtrampler
p2553
(dp2554
g115
(dp2555
g5
I0
sg6
g2553
sg7
g34
sg9
I1
sg10
g115
sg11
I0
sg12
g13
(g17
S'\xb4\xff\xc3\xb3\xff\xc3\xe3?'
p2556
tp2557
Rp2558
sssVwed
p2559
(dp2560
g228
(dp2561
g5
I0
sg6
g2559
sg7
g48
sg9
I2
sg10
g228
sg11
I0
sg12
g13
(g17
S'\x9c\xc1\x96\x9a\xc1\x96\xca?'
p2562
tp2563
Rp2564
sssS'emigre'
p2565
(dp2566
g235
(dp2567
g5
I0
sg6
g2565
sg7
g27
sg9
I0
sg10
g235
sg11
I1
sg12
g13
(g17
S'\x00\x00\x00\x90\xfd\x00\xee?'
p2568
tp2569
Rp2570
sssVadvancement
p2571
(dp2572
g46
(dp2573
g5
I0
sg6
g2571
sg7
g34
sg9
I1
sg10
g46
sg11
I0
sg12
g13
(g17
S'\x00\x00\x00p\x9b\xb5\xe7?'
p2574
tp2575
Rp2576
sssVappellant
p2577
(dp2578
g341
(dp2579
g5
I0
sg6
g2577
sg7
g34
sg9
I2
sg10
g341
sg11
I0
sg12
g13
(g17
S'\x00\x00\x00\x00\x00\x00\x00\x00'
p2580
tp2581
Rp2582
sssS'arrest'
p2583
(dp2584
g460
(dp2585
g5
F1.0
sg6
g2583
sg7
g27
sg9
I1
sg10
g460
sg11
I1
sg12
g13
(g17
S'\x00\x00\x00\x00\x00\x00\x80\xbe'
p2586
tp2587
Rp2588
sssS'combine'
p2589
(dp2590
g102
(dp2591
g5
I0
sg6
g2589
sg7
g8
sg9
I0
sg10
g102
sg11
I1
sg12
g13
(g17
S'\x00\x00\x00\x80\xaen\xd8?'
p2592
tp2593
Rp2594
sssVcub
p2595
(dp2596
g76
(dp2597
g5
I0
sg6
g2595
sg7
g34
sg9
I2
sg10
g76
sg11
I0
sg12
g13
(g17
S'\x00\x00\x00\xf0\xe0C\xe5?'
p2598
tp2599
Rp2600
sssVdriftage
p2601
(dp2602
g46
(dp2603
g5
I0
sg6
g2601
sg7
g34
sg9
I1
sg10
g46
sg11
I0
sg12
g13
(g17
S'\x00\x00\x00\x100\xae\xe3?'
p2604
tp2605
Rp2606
sssS'overthrow'
p2607
(dp2608
g68
(dp2609
g5
I0
sg6
g2607
sg7
g8
sg9
I0
sg10
g68
sg11
I1
sg12
g13
(g17
S'\xf1\xad\xa2\xf0\xad\xa2\xe8?'
p2610
tp2611
Rp2612
sssVintersection
p2613
(dp2614
g201
(dp2615
g5
F0.0
sg6
g2613
sg7
g34
sg9
I1
sg10
g201
sg11
I0
sg12
g13
(g17
S'\x00\x00\x00PG\xa1\xe7?'
p2616
tp2617
Rp2618
sssS'kick'
p2619
(dp2620
g115
(dp2621
g5
I0
sg6
g2619
sg7
g8
sg9
I0
sg10
g115
sg11
I1
sg12
g13
(g17
S'\xdb\xcb\xb6\xda\xcb\xb6\xea?'
p2622
tp2623
Rp2624
sssS'defection'
p2625
(dp2626
g235
(dp2627
g5
I0
sg6
g2625
sg7
g27
sg9
I0
sg10
g235
sg11
I1
sg12
g13
(g17
S'\x00\x00\x00\xc0\xb5\x95\xe6?'
p2628
tp2629
Rp2630
sssVapprehender
p2631
(dp2632
g460
(dp2633
g5
I0
sg6
g2631
sg7
g34
sg9
I1
sg10
g460
sg11
I0
sg12
g13
(g17
S'^\xa0\x85^\xa0\x85\xde?'
p2634
tp2635
Rp2636
sssVvindicate
p2637
(dp2638
g193
(dp2639
g5
I0
sg6
g2637
sg7
g48
sg9
I1
sg10
g193
sg11
I0
sg12
g13
(g17
S'6\xff\x905\xff\x90\xe5?'
p2640
tp2641
Rp2642
sssVadvancer
p2643
(dp2644
g46
(dp2645
g5
I0
sg6
g2643
sg7
g34
sg9
I1
sg10
g46
sg11
I0
sg12
g13
(g17
S'\x00\x00\x00p\x9b\xb5\xe7?'
p2646
tp2647
Rp2648
sssVdisable
p2649
(dp2650
g115
(dp2651
g5
I0
sg6
g2649
sg7
g48
sg9
I1
sg10
g115
sg11
I0
sg12
g13
(g17
S'X\xefCW\xefC\xe7?'
p2652
tp2653
Rp2654
sssVunification
p2655
(dp2656
g102
(dp2657
g5
F1.0
sg6
g2655
sg7
g34
sg9
I1
sg10
g102
sg11
I0
sg12
g13
(g17
S'\x00\x00\x00\x00Ti\xe1?'
p2658
tp2659
Rp2660
sssS'birth'
p2661
(dp2662
g76
(dp2663
g5
F1.0
sg6
g2661
sg7
g27
sg9
I4
sg10
g76
sg11
I1
sg12
g13
(g17
S'\x00\x00\x00\x00\x00\x00\x80\xbe'
p2664
tp2665
Rp2666
sssS'execution'
p2667
(dp2668
g25
(dp2669
g5
F0.6666666666666666
sg6
g2667
sg7
g27
sg9
I1
sg10
g25
sg11
I1
sg12
g13
(g17
S'\x00\x00\x00\x00\xd1\xaa\xd6?'
p2670
tp2671
Rp2672
sssVretreat
p2673
(dp2674
g46
(dp2675
g5
F0.0
sg6
g2673
sg7
g34
sg9
I2
sg10
g46
sg11
I0
sg12
g13
(g17
S'\x00\x00\x00\xe0\x89\xac\xe5?'
p2676
tp2677
Rp2678
sssS'knock'
p2679
(dp2680
g115
(dp2681
g5
I0
sg6
g2679
sg7
g8
sg9
I0
sg10
g115
sg11
I1
sg12
g13
(g17
S'\xb6\x9cV\xb5\x9cV\xe5?'
p2682
tp2683
Rp2684
sssS'flux'
p2685
(dp2686
g102
(dp2687
g5
I0
sg6
g2685
sg7
g8
sg9
I0
sg10
g102
sg11
I1
sg12
g13
(g17
S'\x00\x00\x00\xb0\xee^\xec?'
p2688
tp2689
Rp2690
sssS'claw'
p2691
(dp2692
g115
(dp2693
g5
I0
sg6
g2691
sg7
g8
sg9
I0
sg10
g115
sg11
I1
sg12
g13
(g17
S'\xcaV\x99\xcaV\x99\xea?'
p2694
tp2695
Rp2696
sssS'starvation'
p2697
(dp2698
g221
(dp2699
g5
I0
sg6
g2697
sg7
g27
sg9
I0
sg10
g221
sg11
I1
sg12
g13
(g17
S'2\xcb\xe51\xcb\xe5\xe1?'
p2700
tp2701
Rp2702
sssVnominative
p2703
(dp2704
g771
(dp2705
g5
I0
sg6
g2703
sg7
g195
sg9
I3
sg10
g771
sg11
I0
sg12
g13
(g17
S'\x00\x00\x00\x00\x00\x00\x00\x00'
p2706
tp2707
Rp2708
sssVcrawler
p2709
(dp2710
g46
(dp2711
g5
I0
sg6
g2709
sg7
g34
sg9
I2
sg10
g46
sg11
I0
sg12
g13
(g17
S'\x00\x00\x00`\xa18\xe7?'
p2712
tp2713
Rp2714
sssVroamer
p2715
(dp2716
g46
(dp2717
g5
I0
sg6
g2715
sg7
g34
sg9
I1
sg10
g46
sg11
I0
sg12
g13
(g17
S'\x00\x00\x00\x00S\xc2\xe6?'
p2718
tp2719
Rp2720
sssS'decease'
p2721
(dp2722
g221
(dp2723
g5
I0
sg6
g2721
sg7
g8
sg9
I2
sg10
g221
sg11
I1
sg12
g13
(g17
S'%\xa9\xfd\x8d\xd4\xfe\xe6?'
p2724
tp2725
Rp2726
sssS'creation'
p2727
(dp2728
g61
(dp2729
g5
I0
sg6
g2727
sg7
g27
sg9
I0
sg10
g61
sg11
I1
sg12
g13
(g17
S'\xfe]{\xfe]{\xee?'
p2730
tp2731
Rp2732
sssS'crown'
p2733
(dp2734
g68
(dp2735
g5
I0
sg6
g2733
sg7
g8
sg9
I0
sg10
g68
sg11
I1
sg12
g13
(g17
S']e>]e>\xed?'
p2736
tp2737
Rp2738
sssVbounce
p2739
(dp2740
g46
(dp2741
g5
F0.0
sg6
g2739
sg7
g34
sg9
I1
sg10
g46
sg11
I0
sg12
g13
(g17
S'\x00\x00\x00 \x88i\xe4?'
p2742
tp2743
Rp2744
sssS'election'
p2745
(dp2746
g68
(dp2747
g5
F0.9852941176470589
sg6
g2745
sg7
g27
sg9
I1
sg10
g68
sg11
I1
sg12
g13
(g17
S'\\\xb1\xef\\\xb1\xef\xdc?'
p2748
tp2749
Rp2750
sssS'vacate'
p2751
(dp2752
g235
(dp2753
g5
I0
sg6
g2751
sg7
g8
sg9
I1
sg10
g235
sg11
I1
sg12
g13
(g17
S'.\xdb?i\x12`\xe3?'
p2754
tp2755
Rp2756
sssVascent
p2757
(dp2758
g46
(dp2759
g5
I0
sg6
g2757
sg7
g34
sg9
I2
sg10
g46
sg11
I0
sg12
g13
(g17
S'\x96w2\x96w2\xe6?'
p2760
tp2761
Rp2762
sssVcreep
p2763
(dp2764
g46
(dp2765
g5
I0
sg6
g2763
sg7
g34
sg9
I3
sg10
g46
sg11
I0
sg12
g13
(g17
S'\x00\x00\x00P\xb8o\xe5?'
p2766
tp2767
Rp2768
sssVsolemnise
p2769
(dp2770
g228
(dp2771
g5
I0
sg6
g2769
sg7
g48
sg9
I1
sg10
g228
sg11
I0
sg12
g13
(g17
S'\x80zS\x80zS\xe0?'
p2772
tp2773
Rp2774
sssS'slice'
p2775
(dp2776
g115
(dp2777
g5
I0
sg6
g2775
sg7
g8
sg9
I0
sg10
g115
sg11
I1
sg12
g13
(g17
S'\xd73\xef\xd63\xef\xee?'
p2778
tp2779
Rp2780
sssVrenounce
p2781
(dp2782
g235
(dp2783
g5
I0
sg6
g2781
sg7
g48
sg9
I1
sg10
g235
sg11
I0
sg12
g13
(g17
S'\x00\x00\x00\x00]\x95\xe4?'
p2784
tp2785
Rp2786
sssS'pelt'
p2787
(dp2788
g115
(dp2789
g5
I0
sg6
g2787
sg7
g8
sg9
I0
sg10
g115
sg11
I1
sg12
g13
(g17
S'x\xf4\xedw\xf4\xed\xe7?'
p2790
tp2791
Rp2792
sssVcradle
p2793
(dp2794
g76
(dp2795
g5
F0.0
sg6
g2793
sg7
g34
sg9
I1
sg10
g76
sg11
I0
sg12
g13
(g17
S' \x0e\x05\xf0x\xfd\xe7?'
p2796
tp2797
Rp2798
sssVconvict
p2799
(dp2800
g399
(dp2801
g5
F1.0
sg6
g2799
sg7
g34
sg9
I2
sg10
g399
sg11
I0
sg12
g13
(g17
S'\x00\x00\x00\x00\x00\x00p>'
p2802
tp2803
Rp2804
sssS'beget'
p2805
(dp2806
g76
(dp2807
g5
I0
sg6
g2805
sg7
g8
sg9
I0
sg10
g76
sg11
I1
sg12
g13
(g17
S'\x00\x00\x00\x80\xd3u\xeb?'
p2808
tp2809
Rp2810
sssVinvade
p2811
(dp2812
g54
(dp2813
g5
I0
sg6
g2811
sg7
g48
sg9
I1
sg10
g54
sg11
I0
sg12
g13
(g17
S'\x9b\xef\x8b2\x08\xba\xe6?'
p2814
tp2815
Rp2816
sssS'knife'
p2817
(dp2818
g115
(dp2819
g5
I0
sg6
g2817
sg7
g8
sg9
I0
sg10
g115
sg11
I1
sg12
g13
(g17
S'\xa9\xaf\x16\xa9\xaf\x16\xe9?'
p2820
tp2821
Rp2822
sssVrun
p2823
(dp2824
g46
(dp2825
g5
F0.034482758620689655
sg6
g2823
sg7
g34
sg9
I2
sg10
g46
sg11
I0
sg12
g13
(g17
S'\x00\x00\x00\x80h\xb8\xe5?'
p2826
tp2827
Rp2828
sssVasphyxia
p2829
(dp2830
g221
(dp2831
g5
I0
sg6
g2829
sg7
g34
sg9
I1
sg10
g221
sg11
I0
sg12
g13
(g17
S'vt\x84vt\x84\xe6?'
p2832
tp2833
Rp2834
sssS'burn'
p2835
(dp2836
g115
(dp2837
g5
I0
sg6
g2835
sg7
g8
sg9
I0
sg10
g115
sg11
I1
sg12
g13
(g17
S'\x08s\xc1\x07s\xc1\xe7?'
p2838
tp2839
Rp2840
sssS'confer'
p2841
(dp2842
g201
(dp2843
g5
I0
sg6
g2841
sg7
g8
sg9
I0
sg10
g201
sg11
I1
sg12
g13
(g17
S'\x00\x00\x00\x107\xe4\xe4?'
p2844
tp2845
Rp2846
sssVstep
p2847
(dp2848
g46
(dp2849
g5
F0.660377358490566
sg6
g2847
sg7
g34
sg9
I8
sg10
g46
sg11
I0
sg12
g13
(g17
S'\x00\x00\x00\x80\xf6\xc3\xde?'
p2850
tp2851
Rp2852
sssS'expire'
p2853
(dp2854
g221
(dp2855
g5
I0
sg6
g2853
sg7
g8
sg9
I0
sg10
g221
sg11
I1
sg12
g13
(g17
S':^t:^t\xea?'
p2856
tp2857
Rp2858
sssS'bolt'
p2859
(dp2860
g235
(dp2861
g5
I0
sg6
g2859
sg7
g8
sg9
I0
sg10
g235
sg11
I1
sg12
g13
(g17
S'\x00\x00\x00p\x1c\x19\xeb?'
p2862
tp2863
Rp2864
sssS'manufacturing'
p2865
(dp2866
g423
(dp2867
g5
F1.0
sg6
g2865
sg7
g27
sg9
I1
sg10
g423
sg11
I1
sg12
g13
(g17
S'\x00\x00\x00\x006\xb0\xd8?'
p2868
tp2869
Rp2870
sssVconcuss
p2871
(dp2872
g115
(dp2873
g5
I0
sg6
g2871
sg7
g48
sg9
I1
sg10
g115
sg11
I0
sg12
g13
(g17
S'\x96|YD\xbe,\xe2?'
p2874
tp2875
Rp2876
sssS'manufacturer'
p2877
(dp2878
g423
(dp2879
g5
F1.0
sg6
g2877
sg7
g27
sg9
I2
sg10
g423
sg11
I1
sg12
g13
(g17
S'\x00\x00\x00\x00\xbf\xea\xdb?'
p2880
tp2881
Rp2882
sssS'throne'
p2883
(dp2884
g68
(dp2885
g5
I0
sg6
g2883
sg7
g8
sg9
I0
sg10
g68
sg11
I1
sg12
g13
(g17
S'jW\x97jW\x97\xea?'
p2886
tp2887
Rp2888
sssS'stone'
p2889
(dp2890
g115
(dp2891
g5
I0
sg6
g2889
sg7
g8
sg9
I0
sg10
g115
sg11
I1
sg12
g13
(g17
S'9g\xdf8g\xdf\xec?'
p2892
tp2893
Rp2894
sssVslither
p2895
(dp2896
g46
(dp2897
g5
I0
sg6
g2895
sg7
g48
sg9
I1
sg10
g46
sg11
I0
sg12
g13
(g17
S'\x00\x00\x00p\xe7u\xe6?'
p2898
tp2899
Rp2900
sssVgetting
p2901
(dp2902
g619
(dp2903
g5
I0
sg6
g2901
sg7
g34
sg9
I1
sg10
g619
sg11
I0
sg12
g13
(g17
S'uL0uL0\xe5?'
p2904
tp2905
Rp2906
sssS'chop'
p2907
(dp2908
g115
(dp2909
g5
I0
sg6
g2907
sg7
g8
sg9
I0
sg10
g115
sg11
I1
sg12
g13
(g17
S'X\xb2$X\xb2$\xe8?'
p2910
tp2911
Rp2912
sssS'ambush'
p2913
(dp2914
g54
(dp2915
g5
I0
sg6
g2913
sg7
g8
sg9
I0
sg10
g54
sg11
I1
sg12
g13
(g17
S'\xfe\xbc`\x81\xa1O\xdf?'
p2916
tp2917
Rp2918
sssVroam
p2919
(dp2920
g46
(dp2921
g5
I0
sg6
g2919
sg7
g48
sg9
I1
sg10
g46
sg11
I0
sg12
g13
(g17
S'\x00\x00\x00\x00S\xc2\xe6?'
p2922
tp2923
Rp2924
sssS'croak'
p2925
(dp2926
g221
(dp2927
g5
I0
sg6
g2925
sg7
g8
sg9
I1
sg10
g221
sg11
I1
sg12
g13
(g17
S'W\xa9\xf0V\xa9\xf0\xe6?'
p2928
tp2929
Rp2930
sssVgestate
p2931
(dp2932
g76
(dp2933
g5
I0
sg6
g2931
sg7
g48
sg9
I1
sg10
g76
sg11
I0
sg12
g13
(g17
S'\x00\x00\x00@\x9e\x89\xe6?'
p2934
tp2935
Rp2936
sssS'talk_(to)'
p2937
(dp2938
g201
(dp2939
g5
I0
sg6
g2937
sg7
g8
sg9
I0
sg10
g201
sg11
I1
sg12
I1
sssS'depose'
p2940
(dp2941
g68
(dp2942
g5
I0
sg6
g2940
sg7
g8
sg9
I0
sg10
g68
sg11
I1
sg12
g13
(g17
S'\xe6\\\x89\xe5\\\x89\xe5?'
p2943
tp2944
Rp2945
sssVdrifter
p2946
(dp2947
g46
(dp2948
g5
I0
sg6
g2946
sg7
g34
sg9
I1
sg10
g46
sg11
I0
sg12
g13
(g17
S'\x00\x00\x00\x100\xae\xe3?'
p2949
tp2950
Rp2951
sssVrising
p2952
(dp2953
g46
(dp2954
g5
I0
sg6
g2952
sg7
g34
sg9
I1
sg10
g46
sg11
I0
sg12
g13
(g17
S'\x00\x00\x00@%\x87\xe6?'
p2955
tp2956
Rp2957
sssVelectorate
p2958
(dp2959
g68
(dp2960
g5
I0
sg6
g2958
sg7
g34
sg9
I1
sg10
g68
sg11
I0
sg12
g13
(g17
S'\x00\x00\x00\x10\x00\x00p\xbe'
p2961
tp2962
Rp2963
sssVintermarriage
p2964
(dp2965
g228
(dp2966
g5
F1.0
sg6
g2964
sg7
g34
sg9
I2
sg10
g228
sg11
I0
sg12
g13
(g17
S'\x84\xc0\x9f\x84\xc0\x9f\xe4?'
p2967
tp2968
Rp2969
sssS'emigrate'
p2970
(dp2971
g235
(dp2972
g5
I0
sg6
g2970
sg7
g8
sg9
I0
sg10
g235
sg11
I1
sg12
g13
(g17
S'\xb6r\xde\xb5r\xde\xe5?'
p2973
tp2974
Rp2975
sssS'bring_together'
p2976
(dp2977
g102
(dp2978
g5
I0
sg6
g2976
sg7
g8
sg9
I0
sg10
g102
sg11
I1
sg12
I1
sssS'vamoose'
p2979
(dp2980
g235
(dp2981
g5
I0
sg6
g2979
sg7
g8
sg9
I0
sg10
g235
sg11
I1
sg12
g13
(g17
S'\x00\x00\x00`\xcdk\xe7?'
p2982
tp2983
Rp2984
sssVtransfer
p2985
(dp2986
g46
(dp2987
g5
F0.0
sg6
g2985
sg7
g34
sg9
I1
sg10
g46
sg11
I0
sg12
g13
(g17
S'\x00\x00\x00\x00FW\xe2?'
p2988
tp2989
Rp2990
sssVflying
p2991
(dp2992
g46
(dp2993
g5
I0
sg6
g2991
sg7
g34
sg9
I1
sg10
g46
sg11
I0
sg12
g13
(g17
S'\x00\x00\x00\x00;]\xe7?'
p2994
tp2995
Rp2996
sssVuniting
p2997
(dp2998
g102
(dp2999
g5
I0
sg6
g2997
sg7
g34
sg9
I1
sg10
g102
sg11
I0
sg12
g13
(g17
S'\x00\x00\x00`E\x81\xe2?'
p3000
tp3001
Rp3002
sssS'consultation'
p3003
(dp3004
g201
(dp3005
g5
I0
sg6
g3003
sg7
g27
sg9
I0
sg10
g201
sg11
I1
sg12
g13
(g17
S'\x00\x00\x00\x00\xd9\x14\xeb?'
p3006
tp3007
Rp3008
sssVsuit
p3009
(dp3010
g305
(dp3011
g5
F0.0
sg6
g3009
sg7
g34
sg9
I1
sg10
g305
sg11
I0
sg12
g13
(g17
S'\x00\x00\x00\x00\x00\x00\x00\x00'
p3012
tp3013
Rp3014
sssVcondone
p3015
(dp3016
g3
(dp3017
g5
I0
sg6
g3015
sg7
g48
sg9
I1
sg10
g3
sg11
I0
sg12
g13
(g17
S'\x00\x00\x000-f\xe5?'
p3018
tp3019
Rp3020
sssVascendable
p3021
(dp3022
g46
(dp3023
g5
I0
sg6
g3021
sg7
g195
sg9
I1
sg10
g46
sg11
I0
sg12
g13
(g17
S'\x96w2\x96w2\xe6?'
p3024
tp3025
Rp3026
sssS'synthesis'
p3027
(dp3028
g61
(dp3029
g5
I0
sg6
g3027
sg7
g27
sg9
I0
sg10
g61
sg11
I1
sg12
g13
(g17
S'\x00\x00\x00\xd6\xbeB\xee?'
p3030
tp3031
Rp3032
sssS'manufacture'
p3033
(dp3034
g423
(dp3035
g5
F1.0
sg6
g3033
sg7
g27
sg9
I2
sg10
g423
sg11
I1
sg12
g13
(g17
S'\x00\x00\x00\x00\x00\x00p>'
p3036
tp3037
Rp3038
sssS'starve'
p3039
(dp3040
g221
(dp3041
g5
I0
sg6
g3039
sg7
g8
sg9
I1
sg10
g221
sg11
I1
sg12
g13
(g17
S'\xa0\xf7\xf6\xbf{\xfb\xdf?'
p3042
tp3043
Rp3044
sssS'buy'
p3045
(dp3046
g619
(dp3047
g5
I0
sg6
g3045
sg7
g8
sg9
I2
sg10
g619
sg11
I1
sg12
g13
(g17
S'\x00\x00\x00\x00\x00\x00p>'
p3048
tp3049
Rp3050
sssVconvergency
p3051
(dp3052
g201
(dp3053
g5
I0
sg6
g3051
sg7
g34
sg9
I1
sg10
g201
sg11
I0
sg12
g13
(g17
S'\x00\x00\x00\xa0\xf4\xfd\xe4?'
p3054
tp3055
Rp3056
sssVlitigate
p3057
(dp3058
g305
(dp3059
g5
I0
sg6
g3057
sg7
g48
sg9
I1
sg10
g305
sg11
I0
sg12
g13
(g17
S'\x00\x00\x00\xc0\xcfR\xdf?'
p3060
tp3061
Rp3062
sssVascend
p3063
(dp3064
g46
(dp3065
g5
I0
sg6
g3063
sg7
g48
sg9
I1
sg10
g46
sg11
I0
sg12
g13
(g17
S'\x96w2\x96w2\xe6?'
p3066
tp3067
Rp3068
sssS'synthesise'
p3069
(dp3070
g61
(dp3071
g5
I0
sg6
g3069
sg7
g8
sg9
I0
sg10
g61
sg11
I1
sg12
g13
(g17
S'\x00\x00\x00\x80\x81\x87\xeb?'
p3072
tp3073
Rp3074
sssVhear
p3075
(dp3076
g1205
(dp3077
g5
I0
sg6
g3075
sg7
g48
sg9
I1
sg10
g1205
sg11
I0
sg12
g13
(g17
S'\x00\x00\x00`\x90>\xe1?'
p3078
tp3079
Rp3080
sssVconvergence
p3081
(dp3082
g201
(dp3083
g5
I0
sg6
g3081
sg7
g34
sg9
I1
sg10
g201
sg11
I0
sg12
g13
(g17
S'\x00\x00\x00\xa0\xf4\xfd\xe4?'
p3084
tp3085
Rp3086
sssS'assail'
p3087
(dp3088
g54
(dp3089
g5
I0
sg6
g3087
sg7
g8
sg9
I0
sg10
g54
sg11
I1
sg12
g13
(g17
S'F\xd9\xcc\\\x93\x99\xe9?'
p3090
tp3091
Rp3092
sssVvisitant
p3093
(dp3094
g201
(dp3095
g5
I0
sg6
g3093
sg7
g34
sg9
I1
sg10
g201
sg11
I0
sg12
g13
(g17
S'\x96\xb2\x11\xb5&w\xe5?'
p3096
tp3097
Rp3098
sssVbuying
p3099
(dp3100
g619
(dp3101
g5
F1.0
sg6
g3099
sg7
g34
sg9
I1
sg10
g619
sg11
I0
sg12
g13
(g17
S'\x00\x00\x00\x00\x00\x00p>'
p3102
tp3103
Rp3104
sssVhire
p3105
(dp3106
g924
(dp3107
g5
I0
sg6
g3105
sg7
g34
sg9
I2
sg10
g924
sg11
I0
sg12
g13
(g17
S'\x00\x00\x00\xc0\xff\xff\x7f>'
p3108
tp3109
Rp3110
sssS'skedaddle'
p3111
(dp3112
g235
(dp3113
g5
I0
sg6
g3111
sg7
g8
sg9
I0
sg10
g235
sg11
I1
sg12
g13
(g17
S'\x00\x00\x00\xa0\xb8\xbc\xe7?'
p3114
tp3115
Rp3116
sssS'fabricate'
p3117
(dp3118
g423
(dp3119
g5
I0
sg6
g3117
sg7
g8
sg9
I2
sg10
g423
sg11
I1
sg12
g13
(g17
S'\x00\x00\x00 W\xd7\xe1?'
p3120
tp3121
Rp3122
sssS'enthrone'
p3123
(dp3124
g68
(dp3125
g5
I0
sg6
g3123
sg7
g8
sg9
I0
sg10
g68
sg11
I1
sg12
g13
(g17
S'x\xcc\x1bx\xcc\x1b\xe8?'
p3126
tp3127
Rp3128
sssVdemonstrate
p3129
(dp3130
g1451
(dp3131
g5
I0
sg6
g3129
sg7
g48
sg9
I1
sg10
g1451
sg11
I0
sg12
g13
(g17
S'\x00\x00\x00\x00\x00\x00\x00\x00'
p3132
tp3133
Rp3134
sssVcreeping
p3135
(dp3136
g46
(dp3137
g5
I0
sg6
g3135
sg7
g34
sg9
I1
sg10
g46
sg11
I0
sg12
g13
(g17
S'\x00\x00\x00P\xb8o\xe5?'
p3138
tp3139
Rp3140
sssVsolemnize
p3141
(dp3142
g228
(dp3143
g5
I0
sg6
g3141
sg7
g48
sg9
I1
sg10
g228
sg11
I0
sg12
g13
(g17
S'\xde\xb9\xe8\xde\xb9\xe8\xde?'
p3144
tp3145
Rp3146
sssS'kick the bucket'
p3147
(dp3148
g221
(dp3149
g5
I0
sg6
g3147
sg7
g8
sg9
I0
sg10
g221
sg11
I1
sg12
I1
sssVrepatriation
p3150
(dp3151
g905
(dp3152
g5
I0
sg6
g3150
sg7
g34
sg9
I1
sg10
g905
sg11
I0
sg12
g13
(g17
S'\xd2\xc6\xa6\xd1\xc6\xa6\xe1?'
p3153
tp3154
Rp3155
sssS'asphyxiate'
p3156
(dp3157
g221
(dp3158
g5
I0
sg6
g3156
sg7
g8
sg9
I1
sg10
g221
sg11
I1
sg12
g13
(g17
S'vt\x84vt\x84\xe6?'
p3159
tp3160
Rp3161
sssVconvergent
p3162
(dp3163
g201
(dp3164
g5
I0
sg6
g3162
sg7
g70
sg9
I1
sg10
g201
sg11
I0
sg12
g13
(g17
S'\x00\x00\x00\xa0\xf4\xfd\xe4?'
p3165
tp3166
Rp3167
sssS'horsewhip'
p3168
(dp3169
g115
(dp3170
g5
I0
sg6
g3168
sg7
g8
sg9
I0
sg10
g115
sg11
I1
sg12
g13
(g17
S'\xb0w?E\x88\xc0\xea?'
p3171
tp3172
Rp3173
sssVtrundle
p3174
(dp3175
g46
(dp3176
g5
I0
sg6
g3174
sg7
g48
sg9
I1
sg10
g46
sg11
I0
sg12
g13
(g17
S'\xb8f\xed\xa3L\t\xe6?'
p3177
tp3178
Rp3179
sssVmover
p3180
(dp3181
g46
(dp3182
g5
F0.0
sg6
g3180
sg7
g34
sg9
I1
sg10
g46
sg11
I0
sg12
g13
(g17
S'\x00\x00\x00\x00\x00\x00\x80\xbe'
p3183
tp3184
Rp3185
sssS'bring_forth'
p3186
(dp3187
g76
(dp3188
g5
I0
sg6
g3186
sg7
g8
sg9
I0
sg10
g76
sg11
I1
sg12
I1
sssS'nab'
p3189
(dp3190
g460
(dp3191
g5
I0
sg6
g3189
sg7
g8
sg9
I1
sg10
g460
sg11
I1
sg12
g13
(g17
S'\x00\x00\x00\xc0\r\x99\xe3?'
p3192
tp3193
Rp3194
sssVcreeper
p3195
(dp3196
g46
(dp3197
g5
F0.0
sg6
g3195
sg7
g34
sg9
I1
sg10
g46
sg11
I0
sg12
g13
(g17
S'\x00\x00\x00P\xb8o\xe5?'
p3198
tp3199
Rp3200
sssS'offensive'
p3201
(dp3202
g54
(dp3203
g5
I0
sg6
g3201
sg7
g27
sg9
I0
sg10
g54
sg11
I1
sg12
g13
(g17
S'h\xa1+L/\xea\xe1?'
p3204
tp3205
Rp3206
sssS'commingle'
p3207
(dp3208
g102
(dp3209
g5
I0
sg6
g3207
sg7
g8
sg9
I0
sg10
g102
sg11
I1
sg12
g13
(g17
S'\x00\x00\x00\x80\xb1g\xe5?'
p3210
tp3211
Rp3212
sssVtrample
p3213
(dp3214
g115
(dp3215
g5
I0
sg6
g3213
sg7
g34
sg9
I2
sg10
g115
sg11
I0
sg12
g13
(g17
S'\xb4\xff\xc3\xb3\xff\xc3\xe3?'
p3216
tp3217
Rp3218
sssS'book'
p3219
(dp3220
g460
(dp3221
g5
I0
sg6
g3219
sg7
g8
sg9
I0
sg10
g460
sg11
I1
sg12
g13
(g17
S'\x00\x00\x008\n\xef\xec?'
p3222
tp3223
Rp3224
sssVforge
p3225
(dp3226
g46
(dp3227
g5
I0
sg6
g3225
sg7
g48
sg9
I1
sg10
g46
sg11
I0
sg12
g13
(g17
S'\x00\x00\x00\xb0\x8c*\xe6?'
p3228
tp3229
Rp3230
sssVroll
p3231
(dp3232
g46
(dp3233
g5
F0.4
sg6
g3231
sg7
g34
sg9
I1
sg10
g46
sg11
I0
sg12
g13
(g17
S'\x86\x10\x0f\x86\x10\x0f\xe6?'
p3234
tp3235
Rp3236
sssVmaimer
p3237
(dp3238
g115
(dp3239
g5
I0
sg6
g3237
sg7
g34
sg9
I1
sg10
g115
sg11
I0
sg12
g13
(g17
S'\\Gp[Gp\xdb?'
p3240
tp3241
Rp3242
sssVdrift
p3243
(dp3244
g46
(dp3245
g5
F1.0
sg6
g3243
sg7
g34
sg9
I2
sg10
g46
sg11
I0
sg12
g13
(g17
S'\x00\x00\x00\x100\xae\xe3?'
p3246
tp3247
Rp3248
sssVresign
p3249
(dp3250
g235
(dp3251
g5
I0
sg6
g3249
sg7
g48
sg9
I2
sg10
g235
sg11
I0
sg12
g13
(g17
S'\x00\x00\x00\xc0\xa8G\xd4?'
p3252
tp3253
Rp3254
sssVpush
p3255
(dp3256
g46
(dp3257
g5
F0.8
sg6
g3255
sg7
g34
sg9
I1
sg10
g46
sg11
I0
sg12
g13
(g17
S'\x00\x00\x00\x00NO\xdb?'
p3258
tp3259
Rp3260
sssS'stab'
p3261
(dp3262
g115
(dp3263
g5
I0
sg6
g3261
sg7
g8
sg9
I2
sg10
g115
sg11
I1
sg12
g13
(g17
S'7\xb4\xfe6\xb4\xfe\xe6?'
p3264
tp3265
Rp3266
sssS'mulct'
p3267
(dp3268
g183
(dp3269
g5
I0
sg6
g3267
sg7
g8
sg9
I0
sg10
g183
sg11
I1
sg12
I1
sssVrolling
p3270
(dp3271
g46
(dp3272
g5
I0
sg6
g3270
sg7
g34
sg9
I1
sg10
g46
sg11
I0
sg12
g13
(g17
S'\x86\x10\x0f\x86\x10\x0f\xe6?'
p3273
tp3274
Rp3275
sssS'desert'
p3276
(dp3277
g235
(dp3278
g5
I0
sg6
g3276
sg7
g8
sg9
I0
sg10
g235
sg11
I1
sg12
g13
(g17
S'\x00\x00\x00 \xd0\xa7\xed?'
p3279
tp3280
Rp3281
sssVparole
p3282
(dp3283
g545
(dp3284
g5
I0
sg6
g3282
sg7
g48
sg9
I4
sg10
g545
sg11
I0
sg12
g13
(g17
S'\x00\x00\x00\x00\x00\x00\x00\x00'
p3285
tp3286
Rp3287
sssS'blend'
p3288
(dp3289
g102
(dp3290
g5
I0
sg6
g3288
sg7
g8
sg9
I0
sg10
g102
sg11
I1
sg12
g13
(g17
S'\x00\x00\x00\x00\x1a\xec\xe6?'
p3291
tp3292
Rp3293
sssS'fuse'
p3294
(dp3295
g102
(dp3296
g5
I0
sg6
g3294
sg7
g8
sg9
I0
sg10
g102
sg11
I1
sg12
g13
(g17
S'\x00\x00\x00\xf0\xae\x0c\xea?'
p3297
tp3298
Rp3299
sssS'put to death'
p3300
(dp3301
g25
(dp3302
g5
I0
sg6
g3300
sg7
g8
sg9
I0
sg10
g25
sg11
I1
sg12
I1
sssS'firing squad'
p3303
(dp3304
g25
(dp3305
g5
I0
sg6
g3303
sg7
g27
sg9
I0
sg10
g25
sg11
I1
sg12
I1
sssVwalker
p3306
(dp3307
g46
(dp3308
g5
I0
sg6
g3306
sg7
g34
sg9
I1
sg10
g46
sg11
I0
sg12
g13
(g17
S'\x00\x00\x000R\xc3\xe5?'
p3309
tp3310
Rp3311
sssVmeander
p3312
(dp3313
g46
(dp3314
g5
I0
sg6
g3312
sg7
g34
sg9
I3
sg10
g46
sg11
I0
sg12
g13
(g17
S'\x00\x00\x00 0\x97\xe6?'
p3315
tp3316
Rp3317
sss.